                 U asin@@GLIBC_2.2.5
                 U __assert_fail@@GLIBC_2.2.5
000000000028ae90 B __bss_start
000000000028aea0 b completed.7585
                 U cos@@GLIBC_2.2.5
                 U __cxa_atexit@@GLIBC_2.2.5
                 w __cxa_finalize@@GLIBC_2.2.5
                 U __cxa_guard_abort@@CXXABI_1.3
                 U __cxa_guard_acquire@@CXXABI_1.3
                 U __cxa_guard_release@@CXXABI_1.3
                 U __cxa_pure_virtual@@CXXABI_1.3
000000000001d730 t deregister_tm_clones
000000000001d7c0 t __do_global_dtors_aux
00000000002873d0 t __do_global_dtors_aux_fini_array_entry
000000000028aad0 d __dso_handle
000000000028aad8 d DW.ref.__gxx_personality_v0
0000000000289658 d _DYNAMIC
                 U __dynamic_cast@@CXXABI_1.3
000000000028ae90 D _edata
000000000028b910 B _end
00000000000682c0 T _fini
000000000001d800 t frame_dummy
0000000000287398 t __frame_dummy_init_array_entry
00000000000850b8 r __FRAME_END__
                 U G__add_compiledheader
                 U G__add_setup_func
                 U G__call_setup_funcs
                 U G__check_setup_version
                 U gCint
                 U gCINTMutex
0000000000063e50 T G__cpp_dllrevG__Minuit
0000000000064af0 T G__cpp_reset_tagtableG__Minuit
0000000000064ad0 T G__cpp_setup_funcG__Minuit
0000000000064a80 T G__cpp_setup_globalG__Minuit
0000000000065300 T G__cpp_setupG__Minuit
0000000000063e80 T G__cpp_setup_inheritanceG__Minuit
000000000028b1c0 B G__cpp_setup_initializerG__Minuit
0000000000064a70 T G__cpp_setup_memfuncG__Minuit
0000000000064a60 T G__cpp_setup_memvarG__Minuit
0000000000064f40 T G__cpp_setup_tagtableG__Minuit
0000000000064100 T G__cpp_setup_typetableG__Minuit
                 U G__defined_typename
                 U G__double
                 U G__Doubleref
                 U G__getaryconstruct
                 U G__getgvp
                 U G__get_linked_tagnum
                 U G__get_linked_tagnum_fwd
                 U G__getnumbaseclass
                 U G__getsizep2memfunc
                 U G__getstructoffset
                 U gGlobalMutex
000000000028ac20 D G__G__MinuitLN_iteratorlEbidirectional_iterator_tagcOTObjectmUcOlongcOconstsPTObjectmUmUcOconstsPTObjectmUaNgR
000000000028ab30 D G__G__MinuitLN_reverse_iteratorlEvectorlEdoublecOallocatorlEdoublegRsPgRcLcLiteratorgR
000000000028ade0 D G__G__MinuitLN_reverse_iteratorlEvectorlEROOTcLcLTSchemaHelpercOallocatorlEROOTcLcLTSchemaHelpergRsPgRcLcLiteratorgR
000000000028adb0 D G__G__MinuitLN_reverse_iteratorlEvectorlETVirtualArraymUcOallocatorlETVirtualArraymUgRsPgRcLcLiteratorgR
000000000028ae10 D G__G__MinuitLN_ROOT
000000000028ab80 D G__G__MinuitLN_ROOTcLcLFit
000000000028ab70 D G__G__MinuitLN_ROOTcLcLFitcLcLParameterSettings
000000000028abb0 D G__G__MinuitLN_ROOTcLcLMath
000000000028aba0 D G__G__MinuitLN_ROOTcLcLMathcLcLIBaseFunctionMultiDim
000000000028ab90 D G__G__MinuitLN_ROOTcLcLMathcLcLIGradientFunctionMultiDim
000000000028ab60 D G__G__MinuitLN_ROOTcLcLMathcLcLMinimizer
000000000028ab10 D G__G__MinuitLN_ROOTcLcLMinuit
000000000028ab00 D G__G__MinuitLN_ROOTcLcLMinuitcLcLEMinimizerType
000000000028ae00 D G__G__MinuitLN_string
000000000028ac30 D G__G__MinuitLN_TBits
000000000028ae70 D G__G__MinuitLN_TBuffer
000000000028ae80 D G__G__MinuitLN_TClass
000000000028ae30 D G__G__MinuitLN_TCollection
000000000028ad60 D G__G__MinuitLN_TElementActionTlEdoublegR
000000000028ad50 D G__G__MinuitLN_TElementPosActionTlEdoublegR
000000000028abc0 D G__G__MinuitLN_TFitter
000000000028ac10 D G__G__MinuitLN_TFormula
000000000028abe0 D G__G__MinuitLN_TLinearFitter
000000000028ab50 D G__G__MinuitLN_TLinearMinimizer
000000000028ad90 D G__G__MinuitLN_TMatrixTBaselEdoublegR
000000000028ada0 D G__G__MinuitLN_TMatrixTBaselEfloatgR
000000000028acc0 D G__G__MinuitLN_TMatrixTColumn_constlEdoublegR
000000000028ac80 D G__G__MinuitLN_TMatrixTColumnlEdoublegR
000000000028acd0 D G__G__MinuitLN_TMatrixTDiag_constlEdoublegR
000000000028ac70 D G__G__MinuitLN_TMatrixTDiaglEdoublegR
000000000028aca0 D G__G__MinuitLN_TMatrixTFlat_constlEdoublegR
000000000028ac60 D G__G__MinuitLN_TMatrixTFlatlEdoublegR
000000000028ad30 D G__G__MinuitLN_TMatrixTlEdoublegR
000000000028ad40 D G__G__MinuitLN_TMatrixTRow_constlEdoublegR
000000000028ad10 D G__G__MinuitLN_TMatrixTRowlEdoublegR
000000000028acb0 D G__G__MinuitLN_TMatrixTSparseDiag_constlEdoublegR
000000000028ac40 D G__G__MinuitLN_TMatrixTSparseDiaglEdoublegR
000000000028ad00 D G__G__MinuitLN_TMatrixTSparselEdoublegR
000000000028acf0 D G__G__MinuitLN_TMatrixTSparseRow_constlEdoublegR
000000000028ace0 D G__G__MinuitLN_TMatrixTSparseRowlEdoublegR
000000000028ac90 D G__G__MinuitLN_TMatrixTSub_constlEdoublegR
000000000028ac50 D G__G__MinuitLN_TMatrixTSublEdoublegR
000000000028ad20 D G__G__MinuitLN_TMatrixTSymlEdoublegR
000000000028ae60 D G__G__MinuitLN_TMemberInspector
000000000028ac00 D G__G__MinuitLN_TMethodCall
000000000028abd0 D G__G__MinuitLN_TMinuit
000000000028ab20 D G__G__MinuitLN_TMinuitcLcLdA
000000000028aaf0 D G__G__MinuitLN_TMinuitMinimizer
000000000028ae40 D G__G__MinuitLN_TNamed
000000000028add0 D G__G__MinuitLN_TObjArray
000000000028ae50 D G__G__MinuitLN_TObject
000000000028ae20 D G__G__MinuitLN_TString
000000000028ad70 D G__G__MinuitLN_TVectorTlEdoublegR
000000000028ad80 D G__G__MinuitLN_TVectorTlEfloatgR
000000000028abf0 D G__G__MinuitLN_TVirtualFitter
000000000028ab40 D G__G__MinuitLN_vectorlEdoublecOallocatorlEdoublegRsPgR
000000000028adf0 D G__G__MinuitLN_vectorlEROOTcLcLTSchemaHelpercOallocatorlEROOTcLcLTSchemaHelpergRsPgR
000000000028adc0 D G__G__MinuitLN_vectorlETVirtualArraymUcOallocatorlETVirtualArraymUgRsPgR
                 U G__inheritance_setup
                 U G__int
                 U G__Intref
                 U G__lastifuncposition
                 U G__letdouble
                 U G__letint
000000000028a000 d _GLOBAL_OFFSET_TABLE_
000000000001d690 t _GLOBAL__sub_I_G__Minuit.cxx
000000000001d530 t _GLOBAL__sub_I_TFitter.cxx
000000000001d4d0 t _GLOBAL__sub_I_TLinearFitter.cxx
000000000001d590 t _GLOBAL__sub_I_TLinearMinimizer.cxx
000000000001d5f0 t _GLOBAL__sub_I_TMinuit.cxx
000000000001d630 t _GLOBAL__sub_I_TMinuitMinimizer.cxx
                 U G__memfunc_setup
                 U G__memvar_setup
000000000028aec0 B gMinuit
                 w __gmon_start__
0000000000076e3c r __GNU_EH_FRAME_HDR
                 U G__remove_setup_func
                 U G__resetglobalenv
                 U G__resetifuncposition
                 U G__resetplocal
                 U gROOT
                 U G__search_typename2
0000000000064ed0 T G__set_cpp_environmentG__Minuit
                 U G__setgvp
                 U G__setnewtype
                 U G__setnull
                 U G__setsizep2memfunc
                 U G__set_tagnum
                 U G__tag_memfunc_reset
                 U G__tag_memfunc_setup
                 U G__tag_memvar_reset
                 U G__tag_memvar_setup
                 U G__tagtable_setup
                 U __gxx_personality_v0@@CXXABI_1.3
000000000001be50 T _init
                 w _ITM_deregisterTMCloneTable
                 w _ITM_registerTMCloneTable
00000000002873d8 d __JCR_END__
00000000002873d8 d __JCR_LIST__
                 w _Jv_RegisterClasses
                 U kAssertMsg
                 U log10@@GLIBC_2.2.5
                 U log@@GLIBC_2.2.5
                 U memcmp@@GLIBC_2.2.5
                 U memcpy@@GLIBC_2.14
                 U memmove@@GLIBC_2.2.5
                 U memset@@GLIBC_2.2.5
                 U __powidf2@@GCC_4.0.0
                 U __printf_chk@@GLIBC_2.3.4
                 U puts@@GLIBC_2.2.5
000000000001d770 t register_tm_clones
                 U scanf@@GLIBC_2.2.5
                 U sin@@GLIBC_2.2.5
                 U __snprintf_chk@@GLIBC_2.3.4
                 U sqrt@@GLIBC_2.2.5
                 U sscanf@@GLIBC_2.2.5
                 U __stack_chk_fail@@GLIBC_2.4
                 U strcpy@@GLIBC_2.2.5
                 U strlcpy
                 U strlen@@GLIBC_2.2.5
                 U strncmp@@GLIBC_2.2.5
                 U strncpy@@GLIBC_2.2.5
                 U strspn@@GLIBC_2.2.5
                 U strstr@@GLIBC_2.2.5
0000000000034f90 t __tcf_0
0000000000034fc0 t __tcf_1
0000000000034ff0 t __tcf_2
000000000028ae90 d __TMC_END__
                 U tolower@@GLIBC_2.2.5
                 U _Unwind_Resume@@GCC_3.0
000000000002e300 T _Z14H1FitChisquareRiPdRdS0_i
000000000002e3b0 T _Z15H1FitLikelihoodRiPdRdS0_i
0000000000035e00 T _Z15InteractiveFCNmRiPdRdS0_i
0000000000030380 T _Z17GraphFitChisquareRiPdRdS0_i
00000000000307a0 T _Z19Graph2DFitChisquareRiPdRdS0_i
0000000000030dd0 T _Z22MultiGraphFitChisquareRiPdRdS0_i
0000000000063e60 T _Z29G__get_sizep2memfuncG__Minuitv
                 U _Z4FormPKcz
                 U _Z4InfoPKcS0_z
                 U _Z5ErrorPKcS0_z
0000000000031220 T _Z5F2FitRiPdRdS0_i
00000000000312c0 T _Z5F3FitRiPdRdS0_i
                 U _Z5FatalPKcS0_z
                 U _Z6PrintfPKcz
                 U _Z7WarningPKcS0_z
                 U _Z9MayNotUsePKc
                 U _ZdaPv@@GLIBCXX_3.4
                 U _ZdlPv@@GLIBCXX_3.4
                 U _ZeqRK10TSubStringPKc
                 U _ZeqRK10TSubStringRK7TString
                 U _ZeqRK7TStringPKc
000000000028b068 b _ZGVZN7TMinuit5mnsetEvE6cdbopt
000000000028b158 b _ZGVZN7TMinuit5mnsetEvE6cprlev
000000000028b0c8 b _ZGVZN7TMinuit5mnsetEvE6cstrat
000000000028b188 b _ZGVZN7TMinuit6mncntrEiiRiE6clabel
000000000028b180 b _ZGVZN7TMinuit6mngradEvE3cwd
000000000028b178 b _ZGVZN7TMinuit6mnplotEPdS0_PciiiE4cdot
000000000028b170 b _ZGVZN7TMinuit6mnplotEPdS0_PciiiE6cslash
000000000028b168 b _ZGVZN7TMinuit6mnprinEidE6cblank
000000000028b160 b _ZGVZN7TMinuit6mnprinEidE6cnambf
000000000028afa8 b _ZGVZN7TMinuit6mnunptER7TStringE3cpt
000000000028b8f8 b _ZGVZN8ROOTDictL25GenerateInitInstanceLocalEPK13TLinearFitterE8instance
000000000028b900 b _ZGVZN8ROOTDictL25GenerateInitInstanceLocalEPK13TLinearFitterE9isa_proxy
000000000028b8c8 b _ZGVZN8ROOTDictL25GenerateInitInstanceLocalEPK16TLinearMinimizerE8instance
000000000028b8d0 b _ZGVZN8ROOTDictL25GenerateInitInstanceLocalEPK16TLinearMinimizerE9isa_proxy
000000000028b8b8 b _ZGVZN8ROOTDictL25GenerateInitInstanceLocalEPK16TMinuitMinimizerE8instance
000000000028b8c0 b _ZGVZN8ROOTDictL25GenerateInitInstanceLocalEPK16TMinuitMinimizerE9isa_proxy
000000000028b8d8 b _ZGVZN8ROOTDictL25GenerateInitInstanceLocalEPK7TFitterE8instance
000000000028b8e0 b _ZGVZN8ROOTDictL25GenerateInitInstanceLocalEPK7TFitterE9isa_proxy
000000000028b8e8 b _ZGVZN8ROOTDictL25GenerateInitInstanceLocalEPK7TMinuitE8instance
000000000028b8f0 b _ZGVZN8ROOTDictL25GenerateInitInstanceLocalEPK7TMinuitE9isa_proxy
000000000028b8a8 b _ZGVZN8ROOTDictL25GenerateInitInstanceLocalEPKSt6vectorIdSaIdEEE8instance
000000000028b8b0 b _ZGVZN8ROOTDictL25GenerateInitInstanceLocalEPKSt6vectorIdSaIdEEE9isa_proxy
000000000028aea2 b _ZL13gVersionCheck
000000000028aea4 b _ZL13gVersionCheck
000000000028aea5 b _ZL13gVersionCheck
000000000028b190 b _ZL13gVersionCheck
000000000028b1b0 b _ZL13gVersionCheck
000000000028b909 b _ZL13gVersionCheck
000000000005b450 t _ZL20G__G__Minuit_216_0_3P8G__valuePKcP8G__parami
000000000005e730 t _ZL20G__G__Minuit_216_0_4P8G__valuePKcP8G__parami
0000000000061860 t _ZL20G__G__Minuit_216_0_5P8G__valuePKcP8G__parami
000000000005a3b0 t _ZL20G__G__Minuit_216_0_7P8G__valuePKcP8G__parami
000000000005a1c0 t _ZL20G__G__Minuit_216_0_8P8G__valuePKcP8G__parami
000000000005e4a0 t _ZL20G__G__Minuit_216_0_9P8G__valuePKcP8G__parami
000000000005b120 t _ZL20G__G__Minuit_217_0_3P8G__valuePKcP8G__parami
000000000005d370 t _ZL20G__G__Minuit_217_0_7P8G__valuePKcP8G__parami
000000000005d250 t _ZL20G__G__Minuit_217_0_8P8G__valuePKcP8G__parami
000000000005d130 t _ZL20G__G__Minuit_217_0_9P8G__valuePKcP8G__parami
000000000005aea0 t _ZL20G__G__Minuit_231_0_1P8G__valuePKcP8G__parami
000000000005c9a0 t _ZL20G__G__Minuit_231_0_2P8G__valuePKcP8G__parami
000000000005ab10 t _ZL20G__G__Minuit_239_0_1P8G__valuePKcP8G__parami
000000000005a920 t _ZL20G__G__Minuit_239_0_2P8G__valuePKcP8G__parami
000000000005b680 t _ZL21G__G__Minuit_215_0_12P8G__valuePKcP8G__parami
0000000000061360 t _ZL21G__G__Minuit_215_0_13P8G__valuePKcP8G__parami
0000000000061260 t _ZL21G__G__Minuit_215_0_14P8G__valuePKcP8G__parami
0000000000061010 t _ZL21G__G__Minuit_215_0_15P8G__valuePKcP8G__parami
0000000000060f50 t _ZL21G__G__Minuit_215_0_16P8G__valuePKcP8G__parami
0000000000060f20 t _ZL21G__G__Minuit_215_0_17P8G__valuePKcP8G__parami
000000000005a8b0 t _ZL21G__G__Minuit_215_0_18P8G__valuePKcP8G__parami
0000000000061b50 t _ZL21G__G__Minuit_215_0_19P8G__valuePKcP8G__parami
0000000000059550 t _ZL21G__G__Minuit_215_0_20P8G__valuePKcP8G__parami
000000000005a650 t _ZL21G__G__Minuit_215_0_21P8G__valuePKcP8G__parami
0000000000059520 t _ZL21G__G__Minuit_215_0_23P8G__valuePKcP8G__parami
00000000000594f0 t _ZL21G__G__Minuit_215_0_24P8G__valuePKcP8G__parami
00000000000598b0 t _ZL21G__G__Minuit_215_0_25P8G__valuePKcP8G__parami
0000000000061a90 t _ZL21G__G__Minuit_215_0_26P8G__valuePKcP8G__parami
000000000005e650 t _ZL21G__G__Minuit_215_0_29P8G__valuePKcP8G__parami
00000000000594b0 t _ZL21G__G__Minuit_215_0_30P8G__valuePKcP8G__parami
0000000000060ef0 t _ZL21G__G__Minuit_215_0_31P8G__valuePKcP8G__parami
0000000000059470 t _ZL21G__G__Minuit_215_0_35P8G__valuePKcP8G__parami
0000000000059430 t _ZL21G__G__Minuit_215_0_37P8G__valuePKcP8G__parami
00000000000593f0 t _ZL21G__G__Minuit_215_0_38P8G__valuePKcP8G__parami
00000000000632c0 t _ZL21G__G__Minuit_215_0_41P8G__valuePKcP8G__parami
00000000000593b0 t _ZL21G__G__Minuit_215_0_42P8G__valuePKcP8G__parami
0000000000060e80 t _ZL21G__G__Minuit_215_0_47P8G__valuePKcP8G__parami
0000000000060e10 t _ZL21G__G__Minuit_215_0_48P8G__valuePKcP8G__parami
0000000000059370 t _ZL21G__G__Minuit_215_0_49P8G__valuePKcP8G__parami
0000000000063310 t _ZL21G__G__Minuit_215_0_50P8G__valuePKcP8G__parami
000000000005a5e0 t _ZL21G__G__Minuit_215_0_52P8G__valuePKcP8G__parami
00000000000619a0 t _ZL21G__G__Minuit_215_0_53P8G__valuePKcP8G__parami
000000000005a570 t _ZL21G__G__Minuit_215_0_55P8G__valuePKcP8G__parami
000000000005a500 t _ZL21G__G__Minuit_215_0_56P8G__valuePKcP8G__parami
000000000005a490 t _ZL21G__G__Minuit_215_0_57P8G__valuePKcP8G__parami
000000000005a420 t _ZL21G__G__Minuit_215_0_58P8G__valuePKcP8G__parami
0000000000063360 t _ZL21G__G__Minuit_215_0_59P8G__valuePKcP8G__parami
0000000000059880 t _ZL21G__G__Minuit_215_0_60P8G__valuePKcP8G__parami
0000000000062060 t _ZL21G__G__Minuit_215_0_67P8G__valuePKcP8G__parami
0000000000059860 t _ZL21G__G__Minuit_215_0_68P8G__valuePKcP8G__parami
0000000000059840 t _ZL21G__G__Minuit_215_0_69P8G__valuePKcP8G__parami
0000000000061f20 t _ZL21G__G__Minuit_215_0_70P8G__valuePKcP8G__parami
0000000000065370 t _ZL21G__G__Minuit_215_0_74P8G__valuePKcP8G__parami
0000000000059820 t _ZL21G__G__Minuit_215_0_75P8G__valuePKcP8G__parami
0000000000061ee0 t _ZL21G__G__Minuit_215_0_76P8G__valuePKcP8G__parami
0000000000061ea0 t _ZL21G__G__Minuit_215_0_77P8G__valuePKcP8G__parami
0000000000059800 t _ZL21G__G__Minuit_215_0_78P8G__valuePKcP8G__parami
0000000000059240 t _ZL21G__G__Minuit_215_0_79P8G__valuePKcP8G__parami
0000000000059210 t _ZL21G__G__Minuit_216_0_10P8G__valuePKcP8G__parami
000000000005ced0 t _ZL21G__G__Minuit_216_0_11P8G__valuePKcP8G__parami
000000000005a150 t _ZL21G__G__Minuit_216_0_12P8G__valuePKcP8G__parami
0000000000059910 t _ZL21G__G__Minuit_216_0_13P8G__valuePKcP8G__parami
0000000000059940 t _ZL21G__G__Minuit_216_0_14P8G__valuePKcP8G__parami
0000000000059970 t _ZL21G__G__Minuit_216_0_15P8G__valuePKcP8G__parami
00000000000597d0 t _ZL21G__G__Minuit_216_0_16P8G__valuePKcP8G__parami
00000000000597a0 t _ZL21G__G__Minuit_216_0_17P8G__valuePKcP8G__parami
0000000000059770 t _ZL21G__G__Minuit_216_0_18P8G__valuePKcP8G__parami
000000000005ce30 t _ZL21G__G__Minuit_216_0_19P8G__valuePKcP8G__parami
00000000000633f0 t _ZL21G__G__Minuit_216_0_20P8G__valuePKcP8G__parami
00000000000599a0 t _ZL21G__G__Minuit_216_0_21P8G__valuePKcP8G__parami
0000000000059740 t _ZL21G__G__Minuit_216_0_22P8G__valuePKcP8G__parami
00000000000591e0 t _ZL21G__G__Minuit_216_0_23P8G__valuePKcP8G__parami
000000000005e370 t _ZL21G__G__Minuit_216_0_24P8G__valuePKcP8G__parami
000000000005cdc0 t _ZL21G__G__Minuit_216_0_25P8G__valuePKcP8G__parami
00000000000591b0 t _ZL21G__G__Minuit_216_0_26P8G__valuePKcP8G__parami
000000000005dbc0 t _ZL21G__G__Minuit_216_0_27P8G__valuePKcP8G__parami
000000000005db50 t _ZL21G__G__Minuit_216_0_28P8G__valuePKcP8G__parami
000000000005d9d0 t _ZL21G__G__Minuit_216_0_29P8G__valuePKcP8G__parami
0000000000065790 t _ZL21G__G__Minuit_216_0_30P8G__valuePKcP8G__parami
000000000005d970 t _ZL21G__G__Minuit_216_0_31P8G__valuePKcP8G__parami
0000000000059180 t _ZL21G__G__Minuit_216_0_32P8G__valuePKcP8G__parami
0000000000059150 t _ZL21G__G__Minuit_216_0_33P8G__valuePKcP8G__parami
000000000005e2c0 t _ZL21G__G__Minuit_216_0_34P8G__valuePKcP8G__parami
000000000005e100 t _ZL21G__G__Minuit_216_0_35P8G__valuePKcP8G__parami
000000000005a0c0 t _ZL21G__G__Minuit_216_0_36P8G__valuePKcP8G__parami
000000000005cd00 t _ZL21G__G__Minuit_216_0_37P8G__valuePKcP8G__parami
000000000005e070 t _ZL21G__G__Minuit_216_0_38P8G__valuePKcP8G__parami
000000000005d880 t _ZL21G__G__Minuit_216_0_39P8G__valuePKcP8G__parami
000000000005a050 t _ZL21G__G__Minuit_216_0_40P8G__valuePKcP8G__parami
000000000005d810 t _ZL21G__G__Minuit_216_0_41P8G__valuePKcP8G__parami
0000000000059fe0 t _ZL21G__G__Minuit_216_0_42P8G__valuePKcP8G__parami
0000000000059120 t _ZL21G__G__Minuit_216_0_43P8G__valuePKcP8G__parami
00000000000656d0 t _ZL21G__G__Minuit_216_0_44P8G__valuePKcP8G__parami
00000000000617b0 t _ZL21G__G__Minuit_216_0_45P8G__valuePKcP8G__parami
00000000000590f0 t _ZL21G__G__Minuit_216_0_46P8G__valuePKcP8G__parami
00000000000590c0 t _ZL21G__G__Minuit_216_0_47P8G__valuePKcP8G__parami
0000000000059090 t _ZL21G__G__Minuit_216_0_48P8G__valuePKcP8G__parami
0000000000059f70 t _ZL21G__G__Minuit_216_0_49P8G__valuePKcP8G__parami
0000000000059e90 t _ZL21G__G__Minuit_216_0_50P8G__valuePKcP8G__parami
0000000000059060 t _ZL21G__G__Minuit_216_0_51P8G__valuePKcP8G__parami
000000000005df00 t _ZL21G__G__Minuit_216_0_52P8G__valuePKcP8G__parami
0000000000059e20 t _ZL21G__G__Minuit_216_0_53P8G__valuePKcP8G__parami
0000000000059030 t _ZL21G__G__Minuit_216_0_54P8G__valuePKcP8G__parami
0000000000059000 t _ZL21G__G__Minuit_216_0_55P8G__valuePKcP8G__parami
000000000005cc40 t _ZL21G__G__Minuit_216_0_56P8G__valuePKcP8G__parami
00000000000654c0 t _ZL21G__G__Minuit_216_0_57P8G__valuePKcP8G__parami
000000000005d7c0 t _ZL21G__G__Minuit_216_0_58P8G__valuePKcP8G__parami
000000000005cb10 t _ZL21G__G__Minuit_216_0_59P8G__valuePKcP8G__parami
000000000005ca70 t _ZL21G__G__Minuit_216_0_60P8G__valuePKcP8G__parami
0000000000059c70 t _ZL21G__G__Minuit_216_0_61P8G__valuePKcP8G__parami
000000000005d6e0 t _ZL21G__G__Minuit_216_0_62P8G__valuePKcP8G__parami
000000000005de60 t _ZL21G__G__Minuit_216_0_63P8G__valuePKcP8G__parami
0000000000058fd0 t _ZL21G__G__Minuit_216_0_64P8G__valuePKcP8G__parami
000000000005dd50 t _ZL21G__G__Minuit_216_0_65P8G__valuePKcP8G__parami
000000000005d680 t _ZL21G__G__Minuit_216_0_66P8G__valuePKcP8G__parami
0000000000059c00 t _ZL21G__G__Minuit_216_0_67P8G__valuePKcP8G__parami
0000000000058fa0 t _ZL21G__G__Minuit_216_0_68P8G__valuePKcP8G__parami
0000000000058f70 t _ZL21G__G__Minuit_216_0_69P8G__valuePKcP8G__parami
0000000000058f40 t _ZL21G__G__Minuit_216_0_70P8G__valuePKcP8G__parami
0000000000058f10 t _ZL21G__G__Minuit_216_0_71P8G__valuePKcP8G__parami
0000000000058ee0 t _ZL21G__G__Minuit_216_0_72P8G__valuePKcP8G__parami
000000000005d5c0 t _ZL21G__G__Minuit_216_0_73P8G__valuePKcP8G__parami
000000000005dce0 t _ZL21G__G__Minuit_216_0_74P8G__valuePKcP8G__parami
000000000005e6f0 t _ZL21G__G__Minuit_216_0_75P8G__valuePKcP8G__parami
000000000005d490 t _ZL21G__G__Minuit_216_0_76P8G__valuePKcP8G__parami
0000000000059b20 t _ZL21G__G__Minuit_216_0_77P8G__valuePKcP8G__parami
0000000000058eb0 t _ZL21G__G__Minuit_216_0_78P8G__valuePKcP8G__parami
0000000000059ab0 t _ZL21G__G__Minuit_216_0_79P8G__valuePKcP8G__parami
000000000005dc70 t _ZL21G__G__Minuit_216_0_80P8G__valuePKcP8G__parami
0000000000059a40 t _ZL21G__G__Minuit_216_0_81P8G__valuePKcP8G__parami
00000000000599d0 t _ZL21G__G__Minuit_216_0_82P8G__valuePKcP8G__parami
0000000000063440 t _ZL21G__G__Minuit_216_0_83P8G__valuePKcP8G__parami
0000000000063590 t _ZL21G__G__Minuit_216_0_84P8G__valuePKcP8G__parami
0000000000063510 t _ZL21G__G__Minuit_216_0_85P8G__valuePKcP8G__parami
00000000000616f0 t _ZL21G__G__Minuit_216_0_86P8G__valuePKcP8G__parami
0000000000062400 t _ZL21G__G__Minuit_216_0_87P8G__valuePKcP8G__parami
0000000000059720 t _ZL21G__G__Minuit_216_0_88P8G__valuePKcP8G__parami
00000000000636f0 t _ZL21G__G__Minuit_216_0_89P8G__valuePKcP8G__parami
00000000000622c0 t _ZL21G__G__Minuit_216_0_90P8G__valuePKcP8G__parami
00000000000637e0 t _ZL21G__G__Minuit_216_0_94P8G__valuePKcP8G__parami
0000000000059700 t _ZL21G__G__Minuit_216_0_95P8G__valuePKcP8G__parami
0000000000062280 t _ZL21G__G__Minuit_216_0_96P8G__valuePKcP8G__parami
0000000000062240 t _ZL21G__G__Minuit_216_0_97P8G__valuePKcP8G__parami
00000000000596e0 t _ZL21G__G__Minuit_216_0_98P8G__valuePKcP8G__parami
0000000000058d80 t _ZL21G__G__Minuit_216_0_99P8G__valuePKcP8G__parami
000000000005d010 t _ZL21G__G__Minuit_217_0_10P8G__valuePKcP8G__parami
00000000000598e0 t _ZL21G__G__Minuit_217_0_17P8G__valuePKcP8G__parami
00000000000627a0 t _ZL21G__G__Minuit_217_0_33P8G__valuePKcP8G__parami
00000000000596c0 t _ZL21G__G__Minuit_217_0_34P8G__valuePKcP8G__parami
00000000000596a0 t _ZL21G__G__Minuit_217_0_35P8G__valuePKcP8G__parami
0000000000062660 t _ZL21G__G__Minuit_217_0_36P8G__valuePKcP8G__parami
0000000000063880 t _ZL21G__G__Minuit_217_0_40P8G__valuePKcP8G__parami
0000000000059680 t _ZL21G__G__Minuit_217_0_41P8G__valuePKcP8G__parami
0000000000062620 t _ZL21G__G__Minuit_217_0_42P8G__valuePKcP8G__parami
00000000000625e0 t _ZL21G__G__Minuit_217_0_43P8G__valuePKcP8G__parami
0000000000059660 t _ZL21G__G__Minuit_217_0_44P8G__valuePKcP8G__parami
0000000000058c40 t _ZL21G__G__Minuit_217_0_45P8G__valuePKcP8G__parami
0000000000062b40 t _ZL21G__G__Minuit_231_0_21P8G__valuePKcP8G__parami
0000000000059640 t _ZL21G__G__Minuit_231_0_22P8G__valuePKcP8G__parami
0000000000063710 t _ZL21G__G__Minuit_231_0_23P8G__valuePKcP8G__parami
0000000000062a00 t _ZL21G__G__Minuit_231_0_24P8G__valuePKcP8G__parami
0000000000063650 t _ZL21G__G__Minuit_231_0_25P8G__valuePKcP8G__parami
0000000000058c00 t _ZL21G__G__Minuit_231_0_26P8G__valuePKcP8G__parami
0000000000058bc0 t _ZL21G__G__Minuit_231_0_27P8G__valuePKcP8G__parami
0000000000063bd0 t _ZL21G__G__Minuit_231_0_28P8G__valuePKcP8G__parami
0000000000059620 t _ZL21G__G__Minuit_231_0_29P8G__valuePKcP8G__parami
00000000000629c0 t _ZL21G__G__Minuit_231_0_30P8G__valuePKcP8G__parami
0000000000062980 t _ZL21G__G__Minuit_231_0_31P8G__valuePKcP8G__parami
0000000000059600 t _ZL21G__G__Minuit_231_0_32P8G__valuePKcP8G__parami
0000000000058a80 t _ZL21G__G__Minuit_231_0_33P8G__valuePKcP8G__parami
0000000000061690 t _ZL21G__G__Minuit_239_0_43P8G__valuePKcP8G__parami
0000000000061910 t _ZL21G__G__Minuit_239_0_44P8G__valuePKcP8G__parami
0000000000062ee0 t _ZL21G__G__Minuit_239_0_54P8G__valuePKcP8G__parami
00000000000595e0 t _ZL21G__G__Minuit_239_0_55P8G__valuePKcP8G__parami
00000000000595c0 t _ZL21G__G__Minuit_239_0_56P8G__valuePKcP8G__parami
0000000000062da0 t _ZL21G__G__Minuit_239_0_57P8G__valuePKcP8G__parami
00000000000636a0 t _ZL21G__G__Minuit_239_0_58P8G__valuePKcP8G__parami
0000000000058a40 t _ZL21G__G__Minuit_239_0_59P8G__valuePKcP8G__parami
0000000000058a00 t _ZL21G__G__Minuit_239_0_60P8G__valuePKcP8G__parami
0000000000063920 t _ZL21G__G__Minuit_239_0_61P8G__valuePKcP8G__parami
00000000000595a0 t _ZL21G__G__Minuit_239_0_62P8G__valuePKcP8G__parami
0000000000062d60 t _ZL21G__G__Minuit_239_0_63P8G__valuePKcP8G__parami
0000000000062d20 t _ZL21G__G__Minuit_239_0_64P8G__valuePKcP8G__parami
0000000000059580 t _ZL21G__G__Minuit_239_0_65P8G__valuePKcP8G__parami
00000000000588d0 t _ZL21G__G__Minuit_239_0_66P8G__valuePKcP8G__parami
000000000005be70 t _ZL22G__setup_memvarTFitterv
000000000005e830 t _ZL22G__setup_memvarTMinuitv
0000000000053d40 t _ZL23G__setup_memfuncTFitterv
0000000000054940 t _ZL23G__setup_memfuncTMinuitv
000000000005bfe0 t _ZL28G__setup_memvarTLinearFitterv
0000000000056380 t _ZL29G__setup_memfuncTLinearFitterv
000000000005bbf0 t _ZL31G__setup_memvarTLinearMinimizerv
000000000005b8b0 t _ZL31G__setup_memvarTMinuitMinimizerv
00000000000534f0 t _ZL32G__setup_memfuncTLinearMinimizerv
00000000000578e0 t _ZL32G__setup_memfuncTMinuitMinimizerv
0000000000070e00 r _ZL6charal
                 U _ZN10TSubStringaSERK7TString
                 U _ZN11TDecompChol5SolveER8TVectorTIdE
                 U _ZN11TDecompChol6InvertERb
                 U _ZN11TDecompCholC1ERK11TMatrixTSymIdEd
000000000002d8b0 W _ZN11TDecompCholD0Ev
000000000002d7e0 W _ZN11TDecompCholD1Ev
000000000002d7e0 W _ZN11TDecompCholD2Ev
                 U _ZN11TMatrixTRowIdE5ClassEv
                 U _ZN11TMatrixTRowIdEC1ER8TMatrixTIdEi
000000000002d360 W _ZN11TMatrixTRowIdED0Ev
000000000002cba0 W _ZN11TMatrixTRowIdED1Ev
000000000002cba0 W _ZN11TMatrixTRowIdED2Ev
                 U _ZN11TMatrixTSymIdE11RandomizePDEddRd
                 U _ZN11TMatrixTSymIdE11ShowMembersER16TMemberInspector
000000000002cc00 W _ZN11TMatrixTSymIdE14GetMatrixArrayEv
                 U _ZN11TMatrixTSymIdE14SetMatrixArrayEPKdPKc
000000000002cc40 W _ZN11TMatrixTSymIdE16GetColIndexArrayEv
000000000002cc20 W _ZN11TMatrixTSymIdE16GetRowIndexArrayEv
000000000002ce50 W _ZN11TMatrixTSymIdE16SetColIndexArrayEPi
000000000002ce70 W _ZN11TMatrixTSymIdE16SetRowIndexArrayEPi
                 U _ZN11TMatrixTSymIdE5ApplyERK15TElementActionTIdE
                 U _ZN11TMatrixTSymIdE5ApplyERK18TElementPosActionTIdE
                 U _ZN11TMatrixTSymIdE5ClassEv
000000000002cee0 W _ZN11TMatrixTSymIdE5ClearEPKc
                 U _ZN11TMatrixTSymIdE5ShiftEii
                 U _ZN11TMatrixTSymIdE6InvertEPd
                 U _ZN11TMatrixTSymIdE6SetSubEiiRK12TMatrixTBaseIdE
                 U _ZN11TMatrixTSymIdE8Delete_mEiRPd
                 U _ZN11TMatrixTSymIdE8ResizeToEiii
                 U _ZN11TMatrixTSymIdE8ResizeToEiiiii
                 U _ZN11TMatrixTSymIdE8StreamerER7TBuffer
                 U _ZN11TMatrixTSymIdE9RandomizeEddRd
                 U _ZN11TMatrixTSymIdEaSERKS0_
                 U _ZN11TMatrixTSymIdEC1Ei
                 U _ZN11TMatrixTSymIdEC1EiPKdPKc
                 U _ZN11TMatrixTSymIdEC1ERKS0_
000000000002cc70 W _ZN11TMatrixTSymIdEclEii
000000000002d670 W _ZN11TMatrixTSymIdED0Ev
000000000002cf20 W _ZN11TMatrixTSymIdED1Ev
000000000002cf20 W _ZN11TMatrixTSymIdED2Ev
                 U _ZN11TMatrixTSymIdEpLERKS0_
                 U _ZN11TMethodCall12SetParamPtrsEPvi
                 U _ZN11TMethodCall17InitWithPrototypeEPKcS1_
                 U _ZN11TMethodCall7ExecuteEPvRd
                 U _ZN11TMethodCallC1Ev
                 U _ZN12TMatrixTBaseIdE10NormByDiagERK8TVectorTIdEPKc
                 U _ZN12TMatrixTBaseIdE10UnitMatrixEv
                 U _ZN12TMatrixTBaseIdE11ShowMembersER16TMemberInspector
                 U _ZN12TMatrixTBaseIdE14SetMatrixArrayEPKdPKc
                 U _ZN12TMatrixTBaseIdE3AbsEv
                 U _ZN12TMatrixTBaseIdE3SqrEv
                 U _ZN12TMatrixTBaseIdE4DrawEPKc
                 U _ZN12TMatrixTBaseIdE4SqrtEv
                 U _ZN12TMatrixTBaseIdE4ZeroEv
                 U _ZN12TMatrixTBaseIdE5ApplyERK15TElementActionTIdE
                 U _ZN12TMatrixTBaseIdE5ApplyERK18TElementPosActionTIdE
                 U _ZN12TMatrixTBaseIdE5ClassEv
                 U _ZN12TMatrixTBaseIdE5ShiftEii
                 U _ZN12TMatrixTBaseIdE8StreamerER7TBuffer
                 U _ZN12TMatrixTBaseIdE9InsertRowEiiPKdi
                 U _ZN12TMatrixTBaseIdE9RandomizeEddRd
0000000000020730 T _ZN13TLinearFitter10AssignDataEiiPdS0_S0_
00000000000527e0 T _ZN13TLinearFitter10Class_NameEv
0000000000061f00 T _ZN13TLinearFitter10DictionaryEv
000000000002a290 T _ZN13TLinearFitter10EvalRobustEd
000000000002cab0 W _ZN13TLinearFitter10GetNpointsEv
0000000000028a30 T _ZN13TLinearFitter10SetFormulaEP8TFormula
000000000002bba0 T _ZN13TLinearFitter10SetFormulaEPKc
0000000000020050 T _ZN13TLinearFitter11AddToDesignEPddd
000000000001d920 T _ZN13TLinearFitter11ClearPointsEv
0000000000067120 T _ZN13TLinearFitter11ShowMembersER16TMemberInspector
0000000000029b20 T _ZN13TLinearFitter12CreateSubsetEiiPi
0000000000067af0 W _ZN13TLinearFitter12DeclFileLineEv
0000000000067ae0 W _ZN13TLinearFitter12DeclFileNameEv
000000000001da00 T _ZN13TLinearFitter12FixParameterEi
0000000000025500 T _ZN13TLinearFitter12FixParameterEid
000000000001d840 T _ZN13TLinearFitter12GetAtbVectorER8TVectorTIdE
000000000001e020 T _ZN13TLinearFitter12GetChisquareEv
000000000001e440 T _ZN13TLinearFitter12GetFitSampleER5TBits
0000000000025480 T _ZN13TLinearFitter12GetParTValueEi
0000000000061ec0 T _ZN13TLinearFitter12ImplFileLineEv
0000000000061e80 T _ZN13TLinearFitter12ImplFileNameEv
000000000002cb30 W _ZN13TLinearFitter12SetFitMethodEPKc
000000000002cb40 W _ZN13TLinearFitter12SetParameterEiPKcdddd
0000000000020b70 T _ZN13TLinearFitter12UpdateMatrixEv
0000000000067ad0 W _ZN13TLinearFitter13Class_VersionEv
000000000001d880 T _ZN13TLinearFitter13GetParametersER8TVectorTIdE
0000000000020da0 T _ZN13TLinearFitter14ComputeTValuesEv
00000000000226d0 T _ZN13TLinearFitter14ExecuteCommandEPKcPdi
000000000001ded0 T _ZN13TLinearFitter15AddTempMatricesEv
000000000001db20 T _ZN13TLinearFitter15GetDesignMatrixER8TMatrixTIdE
0000000000021f20 T _ZN13TLinearFitter16HistLinearFitterEv
000000000001e050 T _ZN13TLinearFitter16ReleaseParameterEi
0000000000021230 T _ZN13TLinearFitter17GraphLinearFitterEd
0000000000029960 T _ZN13TLinearFitter17SetBasisFunctionsEP9TObjArray
00000000000255f0 T _ZN13TLinearFitter18GetParSignificanceEi
000000000001dad0 T _ZN13TLinearFitter19GetCovarianceMatrixER8TMatrixTIdE
0000000000021630 T _ZN13TLinearFitter19Graph2DLinearFitterEd
000000000001e0c0 T _ZN13TLinearFitter22GetConfidenceIntervalsEiiPKdPdd
000000000001eb30 T _ZN13TLinearFitter22GetConfidenceIntervalsEP7TObjectd
0000000000021ac0 T _ZN13TLinearFitter22MultiGraphLinearFitterEd
000000000001f850 T _ZN13TLinearFitter3AddEPS_
0000000000023b50 T _ZN13TLinearFitter4EvalEv
00000000000227b0 T _ZN13TLinearFitter4LinfEv
0000000000061f40 T _ZN13TLinearFitter5ClassEv
0000000000029490 T _ZN13TLinearFitter5ClearEPKc
0000000000025670 T _ZN13TLinearFitter5CStepEiiPdPiS1_ii
000000000028b1e8 B _ZN13TLinearFitter5fgIsAE
000000000001db70 T _ZN13TLinearFitter5MergeEP11TCollection
000000000002a0c0 T _ZN13TLinearFitter5RDrawEPiS0_
000000000001d8c0 T _ZN13TLinearFitter6SetDimEi
0000000000022d60 T _ZN13TLinearFitter8AddPointEPddd
000000000001dd90 T _ZN13TLinearFitter8StreamerER7TBuffer
0000000000023020 T _ZN13TLinearFitter9ChisquareEv
000000000001e910 T _ZN13TLinearFitter9GetErrorsER8TVectorTIdE
000000000002cb20 W _ZN13TLinearFitter9GetSumLogEi
0000000000022b00 T _ZN13TLinearFitter9PartitionEiPi
000000000002cae0 W _ZN13TLinearFitter9StoreDataEb
0000000000028540 T _ZN13TLinearFitteraSERKS_
00000000000276e0 T _ZN13TLinearFitterC1Ei
000000000002c1a0 T _ZN13TLinearFitterC1EiPKcS1_
0000000000028da0 T _ZN13TLinearFitterC1EP8TFormulaPKc
0000000000027d30 T _ZN13TLinearFitterC1ERKS_
00000000000270e0 T _ZN13TLinearFitterC1Ev
00000000000276e0 T _ZN13TLinearFitterC2Ei
000000000002c1a0 T _ZN13TLinearFitterC2EiPKcS1_
0000000000028da0 T _ZN13TLinearFitterC2EP8TFormulaPKc
0000000000027d30 T _ZN13TLinearFitterC2ERKS_
00000000000270e0 T _ZN13TLinearFitterC2Ev
0000000000028520 T _ZN13TLinearFitterD0Ev
00000000000281e0 T _ZN13TLinearFitterD1Ev
00000000000281e0 T _ZN13TLinearFitterD2Ev
                 U _ZN13TVersionCheckC1Ei
                 U _ZN14TPluginHandler10ExecPluginEiz
                 U _ZN14TPluginHandler10LoadPluginEv
                 U _ZN14TPluginManager11FindHandlerEPKcS1_
000000000002ca20 W _ZN14TVirtualFitter11SetUserFuncEP7TObject
                 U _ZN14TVirtualFitter11ShowMembersER16TMemberInspector
000000000002c9a0 W _ZN14TVirtualFitter12SetFitOptionE9Foption_t
000000000002ca10 W _ZN14TVirtualFitter12SetObjectFitEP7TObject
000000000002c8a0 W _ZN14TVirtualFitter6GetFCNEv
                 U _ZN14TVirtualFitter6SetFCNEPFvRiPdRdS1_iE
                 U _ZN14TVirtualFitter6SetFCNEPv
                 U _ZN14TVirtualFitter8SetCacheEii
000000000002ca40 W _ZN14TVirtualFitter8SetXlastEi
000000000002ca60 W _ZN14TVirtualFitter8SetYlastEi
000000000002ca80 W _ZN14TVirtualFitter8SetZlastEi
                 U _ZN14TVirtualFitter9GetFitterEv
000000000002ca30 W _ZN14TVirtualFitter9SetXfirstEi
000000000002ca50 W _ZN14TVirtualFitter9SetYfirstEi
000000000002ca70 W _ZN14TVirtualFitter9SetZfirstEi
                 U _ZN14TVirtualFitteraSERKS_
                 U _ZN14TVirtualFitterC2ERKS_
                 U _ZN14TVirtualFitterC2Ev
                 U _ZN14TVirtualFitterD2Ev
0000000000052810 T _ZN16TLinearMinimizer10Class_NameEv
00000000000629e0 T _ZN16TLinearMinimizer10DictionaryEv
0000000000031de0 T _ZN16TLinearMinimizer11SetFunctionERKN4ROOT4Math21IBaseFunctionMultiDimE
0000000000031de0 t _ZN16TLinearMinimizer11SetFunctionERKN4ROOT4Math21IBaseFunctionMultiDimE.localalias.62
0000000000032280 T _ZN16TLinearMinimizer11SetFunctionERKN4ROOT4Math25IGradientFunctionMultiDimE
0000000000032ec0 W _ZN16TLinearMinimizer11SetVariableEjRKNSt7__cxx1112basic_stringIcSt11char_traitsIcESaIcEEEdd
0000000000063c10 T _ZN16TLinearMinimizer11ShowMembersER16TMemberInspector
0000000000067b50 W _ZN16TLinearMinimizer12DeclFileLineEv
0000000000067b40 W _ZN16TLinearMinimizer12DeclFileNameEv
00000000000629a0 T _ZN16TLinearMinimizer12ImplFileLineEv
0000000000062960 T _ZN16TLinearMinimizer12ImplFileNameEv
0000000000067b30 W _ZN16TLinearMinimizer13Class_VersionEv
0000000000031cc0 T _ZN16TLinearMinimizer16SetFixedVariableEjRKNSt7__cxx1112basic_stringIcSt11char_traitsIcESaIcEEEd
0000000000062a20 T _ZN16TLinearMinimizer5ClassEv
000000000028b1d0 B _ZN16TLinearMinimizer5fgIsAE
0000000000032920 T _ZN16TLinearMinimizer8MinimizeEv
0000000000063b70 T _ZN16TLinearMinimizer8StreamerER7TBuffer
0000000000032270 T _ZN16TLinearMinimizeraSERKS_
0000000000031ed0 T _ZN16TLinearMinimizerC1Ei
0000000000031fb0 T _ZN16TLinearMinimizerC1EPKc
00000000000321d0 T _ZN16TLinearMinimizerC1ERKS_
0000000000031ed0 T _ZN16TLinearMinimizerC2Ei
0000000000031fb0 T _ZN16TLinearMinimizerC2EPKc
00000000000321d0 T _ZN16TLinearMinimizerC2ERKS_
0000000000031dc0 T _ZN16TLinearMinimizerD0Ev
0000000000031cf0 T _ZN16TLinearMinimizerD1Ev
0000000000031cf0 T _ZN16TLinearMinimizerD2Ev
                 U _ZN16TMemberInspector11AddToParentEPKc
                 U _ZN16TMemberInspector13InspectMemberEPKcPvS1_b
                 U _ZN16TMemberInspector16RemoveFromParentEi
                 U _ZN16TMemberInspector18GenericShowMembersEPKcPvb
                 U _ZN16TMemberInspector5ClassEv
0000000000052820 T _ZN16TMinuitMinimizer10Class_NameEv
0000000000062d80 T _ZN16TMinuitMinimizer10DictionaryEv
00000000000503e0 T _ZN16TMinuitMinimizer11FixVariableEj
00000000000509b0 T _ZN16TMinuitMinimizer11InitTMinuitEi
0000000000050c20 T _ZN16TMinuitMinimizer11SetFunctionERKN4ROOT4Math21IBaseFunctionMultiDimE
0000000000050cc0 T _ZN16TMinuitMinimizer11SetFunctionERKN4ROOT4Math25IGradientFunctionMultiDimE
00000000000508a0 T _ZN16TMinuitMinimizer11SetVariableEjRKNSt7__cxx1112basic_stringIcSt11char_traitsIcESaIcEEEdd
0000000000063960 T _ZN16TMinuitMinimizer11ShowMembersER16TMemberInspector
0000000000067bb0 W _ZN16TMinuitMinimizer12DeclFileLineEv
0000000000067ba0 W _ZN16TMinuitMinimizer12DeclFileNameEv
0000000000062d40 T _ZN16TMinuitMinimizer12ImplFileLineEv
0000000000062d00 T _ZN16TMinuitMinimizer12ImplFileNameEv
000000000004f3f0 T _ZN16TMinuitMinimizer12PrintResultsEv
0000000000067b90 W _ZN16TMinuitMinimizer13Class_VersionEv
000000000004f8c0 T _ZN16TMinuitMinimizer13GetMinosErrorEjRdS0_i
00000000000513f0 T _ZN16TMinuitMinimizer14RetrieveParamsEv
0000000000050430 T _ZN16TMinuitMinimizer15ReleaseVariableEj
00000000000502c0 T _ZN16TMinuitMinimizer15UseStaticMinuitEb
0000000000050690 T _ZN16TMinuitMinimizer16SetFixedVariableEjRKNSt7__cxx1112basic_stringIcSt11char_traitsIcESaIcEEEd
0000000000050300 T _ZN16TMinuitMinimizer16SetVariableValueEjd
000000000028aae4 D _ZN16TMinuitMinimizer17fgUseStaticMinuitE
0000000000051cd0 T _ZN16TMinuitMinimizer17SetVariableLimitsEjdd
0000000000050800 T _ZN16TMinuitMinimizer18SetLimitedVariableEjRKNSt7__cxx1112basic_stringIcSt11char_traitsIcESaIcEEEdddd
00000000000511d0 T _ZN16TMinuitMinimizer19RetrieveErrorMatrixEv
0000000000051bd0 T _ZN16TMinuitMinimizer19SetVariableStepSizeEjd
0000000000050760 T _ZN16TMinuitMinimizer21DoReleaseFixParameterEi
000000000004f550 T _ZN16TMinuitMinimizer21SetVariableLowerLimitEjd
000000000004f570 T _ZN16TMinuitMinimizer21SetVariableUpperLimitEjd
0000000000050930 T _ZN16TMinuitMinimizer22SuppressMinuitWarningsEb
000000000004f5c0 T _ZN16TMinuitMinimizer23SetLowerLimitedVariableEjRKNSt7__cxx1112basic_stringIcSt11char_traitsIcESaIcEEEddd
000000000004f630 T _ZN16TMinuitMinimizer23SetUpperLimitedVariableEjRKNSt7__cxx1112basic_stringIcSt11char_traitsIcESaIcEEEddd
000000000004f270 T _ZN16TMinuitMinimizer3FcnERiPdRdS1_i
0000000000052290 T _ZN16TMinuitMinimizer4ScanEjRjPdS1_dd
0000000000062dc0 T _ZN16TMinuitMinimizer5ClassEv
000000000028b1c8 B _ZN16TMinuitMinimizer5fgIsAE
0000000000051a30 T _ZN16TMinuitMinimizer5HesseEv
000000000028b1a8 B _ZN16TMinuitMinimizer6fgFuncE
000000000028b198 B _ZN16TMinuitMinimizer6fgUsedE
000000000004f6a0 T _ZN16TMinuitMinimizer7ContourEjjRjPdS1_
0000000000050600 T _ZN16TMinuitMinimizer7DoClearEv
000000000004fc60 T _ZN16TMinuitMinimizer7FcnGradERiPdRdS1_i
000000000028b1a0 B _ZN16TMinuitMinimizer8fgMinuitE
0000000000051560 T _ZN16TMinuitMinimizer8MinimizeEv
00000000000638c0 T _ZN16TMinuitMinimizer8StreamerER7TBuffer
00000000000502b0 T _ZN16TMinuitMinimizeraSERKS_
0000000000050d80 T _ZN16TMinuitMinimizerC1EN4ROOT6Minuit14EMinimizerTypeEj
0000000000050ec0 T _ZN16TMinuitMinimizerC1EPKcj
0000000000050210 T _ZN16TMinuitMinimizerC1ERKS_
0000000000050d80 T _ZN16TMinuitMinimizerC2EN4ROOT6Minuit14EMinimizerTypeEj
0000000000050ec0 T _ZN16TMinuitMinimizerC2EPKcj
0000000000050210 T _ZN16TMinuitMinimizerC2ERKS_
000000000004f530 T _ZN16TMinuitMinimizerD0Ev
000000000004f440 T _ZN16TMinuitMinimizerD1Ev
000000000004f440 T _ZN16TMinuitMinimizerD2Ev
                 U _ZN17TMatrixTRow_constIdE5ClassEv
000000000002d350 W _ZN17TMatrixTRow_constIdED0Ev
000000000002cc60 W _ZN17TMatrixTRow_constIdED1Ev
000000000002cc60 W _ZN17TMatrixTRow_constIdED2Ev
                 U _ZN18G__FastAllocString6FormatEPKcz
                 U _ZN18G__FastAllocString6GetBufERm
                 U _ZN18G__FastAllocStringD1Ev
0000000000067e20 W _ZN21TInstrumentedIsAProxyI13TLinearFitterE8SetClassEP6TClass
0000000000068000 W _ZN21TInstrumentedIsAProxyI13TLinearFitterEclEPKv
0000000000067e90 W _ZN21TInstrumentedIsAProxyI13TLinearFitterED0Ev
0000000000067e10 W _ZN21TInstrumentedIsAProxyI13TLinearFitterED1Ev
0000000000067e10 W _ZN21TInstrumentedIsAProxyI13TLinearFitterED2Ev
0000000000067dc0 W _ZN21TInstrumentedIsAProxyI16TLinearMinimizerE8SetClassEP6TClass
0000000000067fa0 W _ZN21TInstrumentedIsAProxyI16TLinearMinimizerEclEPKv
0000000000067ec0 W _ZN21TInstrumentedIsAProxyI16TLinearMinimizerED0Ev
0000000000067db0 W _ZN21TInstrumentedIsAProxyI16TLinearMinimizerED1Ev
0000000000067db0 W _ZN21TInstrumentedIsAProxyI16TLinearMinimizerED2Ev
0000000000067da0 W _ZN21TInstrumentedIsAProxyI16TMinuitMinimizerE8SetClassEP6TClass
0000000000067f70 W _ZN21TInstrumentedIsAProxyI16TMinuitMinimizerEclEPKv
0000000000067ed0 W _ZN21TInstrumentedIsAProxyI16TMinuitMinimizerED0Ev
0000000000067d90 W _ZN21TInstrumentedIsAProxyI16TMinuitMinimizerED1Ev
0000000000067d90 W _ZN21TInstrumentedIsAProxyI16TMinuitMinimizerED2Ev
0000000000067de0 W _ZN21TInstrumentedIsAProxyI7TFitterE8SetClassEP6TClass
0000000000067fd0 W _ZN21TInstrumentedIsAProxyI7TFitterEclEPKv
0000000000067eb0 W _ZN21TInstrumentedIsAProxyI7TFitterED0Ev
0000000000067dd0 W _ZN21TInstrumentedIsAProxyI7TFitterED1Ev
0000000000067dd0 W _ZN21TInstrumentedIsAProxyI7TFitterED2Ev
0000000000067e00 W _ZN21TInstrumentedIsAProxyI7TMinuitE8SetClassEP6TClass
0000000000067f40 W _ZN21TInstrumentedIsAProxyI7TMinuitEclEPKv
0000000000067ea0 W _ZN21TInstrumentedIsAProxyI7TMinuitED0Ev
0000000000067df0 W _ZN21TInstrumentedIsAProxyI7TMinuitED1Ev
0000000000067df0 W _ZN21TInstrumentedIsAProxyI7TMinuitED2Ev
0000000000067ef0 W _ZN26G__cpp_setup_initG__MinuitD1Ev
0000000000067ef0 W _ZN26G__cpp_setup_initG__MinuitD2Ev
                 U _ZN3TF111RejectPointEb
000000000002cb50 W _ZN3TF112SetChisquareEd
                 U _ZN3TF113RejectedPointEv
000000000002cb60 W _ZN3TF118SetNumberFitPointsEi
                 U _ZN3TF15ClassEv
                 U _ZN3TF1C1EPKcN4ROOT4Math12ParamFunctorEddi
                 U _ZN3TH15ClassEv
                 U _ZN4ROOT14DefineBehaviorEPvS0_
                 U _ZN4ROOT14RegisterModuleEv
                 U _ZN4ROOT17TGenericClassInfo11SetImplFileEPKci
                 U _ZN4ROOT17TGenericClassInfo11SetNewArrayEPFPvlS1_E
                 U _ZN4ROOT17TGenericClassInfo13SetDestructorEPFvPvE
                 U _ZN4ROOT17TGenericClassInfo14SetDeleteArrayEPFvPvE
                 U _ZN4ROOT17TGenericClassInfo15GetImplFileLineEv
                 U _ZN4ROOT17TGenericClassInfo15GetImplFileNameEv
                 U _ZN4ROOT17TGenericClassInfo15SetStreamerFuncEPFvR7TBufferPvE
                 U _ZN4ROOT17TGenericClassInfo24AdoptCollectionProxyInfoEPNS_20TCollectionProxyInfoE
                 U _ZN4ROOT17TGenericClassInfo6SetNewEPFPvS1_E
                 U _ZN4ROOT17TGenericClassInfo8GetClassEv
                 U _ZN4ROOT17TGenericClassInfo8SetMergeEPFxPvP11TCollectionP14TFileMergeInfoE
                 U _ZN4ROOT17TGenericClassInfo9SetDeleteEPFvPvE
                 U _ZN4ROOT17TGenericClassInfoC1EPKciS2_iRKSt9type_infoPKNS_13TInitBehaviorEPFvPvR16TMemberInspectorEPFvvEP16TVirtualIsAProxyii
                 U _ZN4ROOT17TGenericClassInfoC1EPKciS2_iRKSt9type_infoPKNS_13TInitBehaviorEPFvvEP16TVirtualIsAProxyii
                 U _ZN4ROOT17TGenericClassInfoD1Ev
0000000000067e80 W _ZN4ROOT20TCollectionProxyInfo11EnvironBaseD0Ev
0000000000067bc0 W _ZN4ROOT20TCollectionProxyInfo11EnvironBaseD1Ev
0000000000067bc0 W _ZN4ROOT20TCollectionProxyInfo11EnvironBaseD2Ev
0000000000067c40 W _ZN4ROOT20TCollectionProxyInfo4TypeISt6vectorIdSaIdEEE4nextEPv
0000000000067bd0 W _ZN4ROOT20TCollectionProxyInfo4TypeISt6vectorIdSaIdEEE4sizeEPv
0000000000067bf0 W _ZN4ROOT20TCollectionProxyInfo4TypeISt6vectorIdSaIdEEE5clearEPv
0000000000067c00 W _ZN4ROOT20TCollectionProxyInfo4TypeISt6vectorIdSaIdEEE5firstEPv
0000000000067cf0 W _ZN4ROOT20TCollectionProxyInfo4TypeISt6vectorIdSaIdEEE7collectEPvS6_
0000000000067ce0 W _ZN4ROOT20TCollectionProxyInfo4TypeISt6vectorIdSaIdEEE8destructEPvm
0000000000067cb0 W _ZN4ROOT20TCollectionProxyInfo4TypeISt6vectorIdSaIdEEE9constructEPvm
0000000000067e30 W _ZN4ROOT20TCollectionProxyInfo7EnvironIN9__gnu_cxx17__normal_iteratorIPdSt6vectorIdSaIdEEEEE6CreateEv
0000000000067e70 W _ZN4ROOT20TCollectionProxyInfo7EnvironIN9__gnu_cxx17__normal_iteratorIPdSt6vectorIdSaIdEEEEED0Ev
0000000000067d80 W _ZN4ROOT20TCollectionProxyInfo7EnvironIN9__gnu_cxx17__normal_iteratorIPdSt6vectorIdSaIdEEEEED1Ev
0000000000067d80 W _ZN4ROOT20TCollectionProxyInfo7EnvironIN9__gnu_cxx17__normal_iteratorIPdSt6vectorIdSaIdEEEEED2Ev
00000000000681e0 W _ZN4ROOT20TCollectionProxyInfo8PushbackISt6vectorIdSaIdEEE4feedEPvS6_m
0000000000068250 W _ZN4ROOT20TCollectionProxyInfo8PushbackISt6vectorIdSaIdEEE6resizeEPvm
0000000000067d50 W _ZN4ROOT20TCollectionProxyInfo9IteratorsISt6vectorIdSaIdEELb0EE4copyEPvPKv
0000000000067f00 W _ZN4ROOT20TCollectionProxyInfo9IteratorsISt6vectorIdSaIdEELb0EE4nextEPvPKv
0000000000067d20 W _ZN4ROOT20TCollectionProxyInfo9IteratorsISt6vectorIdSaIdEELb0EE6createEPvPS6_S7_P23TVirtualCollectionProxy
0000000000067d60 W _ZN4ROOT20TCollectionProxyInfo9IteratorsISt6vectorIdSaIdEELb0EE9destruct1EPv
0000000000067d70 W _ZN4ROOT20TCollectionProxyInfo9IteratorsISt6vectorIdSaIdEELb0EE9destruct2EPvS6_
0000000000033150 W _ZN4ROOT4Math12ParamFunctorD0Ev
0000000000032fd0 W _ZN4ROOT4Math12ParamFunctorD1Ev
0000000000032fd0 W _ZN4ROOT4Math12ParamFunctorD2Ev
                 U _ZN4ROOT4Math16MinimizerOptionsC1ERKS1_
                 U _ZN4ROOT4Math16MinimizerOptionsC1Ev
                 U _ZN4ROOT4Math16MinimizerOptionsD1Ev
0000000000033050 W _ZN4ROOT4Math19ParamFunctorHandlerINS0_12ParamFunctorE13BasisFunctionINS0_31IParametricGradFunctionMultiDimEEEclEPdS7_
0000000000033180 W _ZN4ROOT4Math19ParamFunctorHandlerINS0_12ParamFunctorE13BasisFunctionINS0_31IParametricGradFunctionMultiDimEEED0Ev
0000000000033040 W _ZN4ROOT4Math19ParamFunctorHandlerINS0_12ParamFunctorE13BasisFunctionINS0_31IParametricGradFunctionMultiDimEEED1Ev
0000000000033040 W _ZN4ROOT4Math19ParamFunctorHandlerINS0_12ParamFunctorE13BasisFunctionINS0_31IParametricGradFunctionMultiDimEEED2Ev
0000000000033bd0 W _ZN4ROOT4Math9Minimizer11FixVariableEj
0000000000033200 W _ZN4ROOT4Math9Minimizer11SetFunctionERKNS0_25IGradientFunctionMultiDimE
0000000000032e90 W _ZN4ROOT4Math9Minimizer12PrintResultsEv
0000000000033620 W _ZN4ROOT4Math9Minimizer13GetMinosErrorEjRdS2_i
0000000000033ca0 W _ZN4ROOT4Math9Minimizer15ReleaseVariableEj
00000000000333b0 W _ZN4ROOT4Math9Minimizer16SetFixedVariableEjRKNSt7__cxx1112basic_stringIcSt11char_traitsIcESaIcEEEd
0000000000033480 W _ZN4ROOT4Math9Minimizer16SetVariableValueEjd
00000000000342e0 W _ZN4ROOT4Math9Minimizer17SetVariableLimitsEjdd
0000000000033240 W _ZN4ROOT4Math9Minimizer17SetVariableValuesEPKd
00000000000341b0 W _ZN4ROOT4Math9Minimizer18SetLimitedVariableEjRKNSt7__cxx1112basic_stringIcSt11char_traitsIcESaIcEEEdddd
0000000000033550 W _ZN4ROOT4Math9Minimizer19SetVariableStepSizeEjd
0000000000033d70 W _ZN4ROOT4Math9Minimizer21SetVariableLowerLimitEjd
0000000000033e40 W _ZN4ROOT4Math9Minimizer21SetVariableUpperLimitEjd
0000000000034060 W _ZN4ROOT4Math9Minimizer23SetLowerLimitedVariableEjRKNSt7__cxx1112basic_stringIcSt11char_traitsIcESaIcEEEddd
0000000000033f10 W _ZN4ROOT4Math9Minimizer23SetUpperLimitedVariableEjRKNSt7__cxx1112basic_stringIcSt11char_traitsIcESaIcEEEddd
0000000000032dd0 W _ZN4ROOT4Math9Minimizer23SetVariableInitialRangeEjdd
0000000000033960 W _ZN4ROOT4Math9Minimizer4ScanEjRjPdS3_dd
0000000000032dc0 W _ZN4ROOT4Math9Minimizer5ClearEv
0000000000033890 W _ZN4ROOT4Math9Minimizer5HesseEv
0000000000033a30 W _ZN4ROOT4Math9Minimizer7ContourEjjRjPdS3_
                 U _ZN5TBits11ShowMembersER16TMemberInspector
000000000002d700 W _ZN5TBits12SetBitNumberEjb
                 U _ZN5TBits5ClearEPKc
                 U _ZN5TBitsaSERKS_
                 U _ZN5TBitsC1Ej
                 U _ZN5TBitsC1ERKS_
                 U _ZN5TBitsD1Ev
                 U _ZN5TMath15StudentQuantileEddb
                 U _ZN5TMath7LnGammaEd
000000000002da80 W _ZN5TMath8KOrdStatIdiEET_T0_PKS1_S2_PS2_
                 U _ZN5TMath8StudentIEdd
                 U _ZN5TUUIDC1Ev
                 U _ZN5TUUIDD1Ev
                 U _ZN6TClass12IsCallingNewEv
                 U _ZN6TGraph5ClassEv
                 U _ZN6TNamed10FillBufferERPc
                 U _ZN6TNamed11ShowMembersER16TMemberInspector
                 U _ZN6TNamed12SetNameTitleEPKcS1_
                 U _ZN6TNamed5ClearEPKc
                 U _ZN6TNamed7SetNameEPKc
                 U _ZN6TNamed8SetTitleEPKc
                 U _ZN6TNamedC2ERKS_
000000000004f200 W _ZN6TNamedD0Ev
000000000004f1a0 W _ZN6TNamedD1Ev
000000000004f1a0 W _ZN6TNamedD2Ev
0000000000052800 T _ZN7TFitter10Class_NameEv
0000000000062640 T _ZN7TFitter10DictionaryEv
00000000000653b0 T _ZN7TFitter11ShowMembersER16TMemberInspector
0000000000067b20 W _ZN7TFitter12DeclFileLineEv
0000000000067b10 W _ZN7TFitter12DeclFileNameEv
000000000002f130 T _ZN7TFitter12FitChisquareERiPdRdS1_i
000000000002dfb0 T _ZN7TFitter12FixParameterEi
0000000000062600 T _ZN7TFitter12ImplFileLineEv
00000000000625c0 T _ZN7TFitter12ImplFileNameEv
000000000002e160 T _ZN7TFitter12SetFitMethodEPKc
0000000000031ac0 T _ZN7TFitter12SetParameterEiPKcdddd
0000000000067b00 W _ZN7TFitter13Class_VersionEv
000000000002f530 T _ZN7TFitter13FitChisquareIERiPdRdS1_i
000000000002f9e0 T _ZN7TFitter13FitLikelihoodERiPdRdS1_i
000000000002df20 T _ZN7TFitter14ExecuteCommandEPKcPdi
000000000002fe10 T _ZN7TFitter14FitLikelihoodIERiPdRdS1_i
000000000002e000 T _ZN7TFitter16ReleaseParameterEi
0000000000031360 T _ZN7TFitter22GetConfidenceIntervalsEiiPKdPdd
000000000002e500 T _ZN7TFitter22GetConfidenceIntervalsEP7TObjectd
0000000000062680 T _ZN7TFitter5ClassEv
000000000002de90 T _ZN7TFitter5ClearEPKc
000000000028b1d8 B _ZN7TFitter5fgIsAE
0000000000031c00 T _ZN7TFitter6SetFCNEPFvRiPdRdS1_iE
0000000000031bb0 T _ZN7TFitter6SetFCNEPv
0000000000063820 T _ZN7TFitter8StreamerER7TBuffer
000000000002e050 T _ZN7TFitter9GetSumLogEi
00000000000317e0 T _ZN7TFitterC1Ei
00000000000317e0 T _ZN7TFitterC2Ei
000000000002de70 T _ZN7TFitterD0Ev
000000000002de00 T _ZN7TFitterD1Ev
000000000002de00 T _ZN7TFitterD2Ev
00000000000527f0 T _ZN7TMinuit10Class_NameEv
00000000000622a0 T _ZN7TMinuit10DictionaryEv
0000000000035170 T _ZN7TMinuit11BuildArraysEi
0000000000034920 T _ZN7TMinuit11SetErrorDefEd
0000000000065990 T _ZN7TMinuit11ShowMembersER16TMemberInspector
0000000000067b80 W _ZN7TMinuit12DeclFileLineEv
0000000000067b70 W _ZN7TMinuit12DeclFileNameEv
0000000000049af0 T _ZN7TMinuit12DeleteArraysEv
00000000000347b0 T _ZN7TMinuit12FixParameterEi
0000000000062260 T _ZN7TMinuit12ImplFileLineEv
0000000000062220 T _ZN7TMinuit12ImplFileNameEv
000000000004f170 W _ZN7TMinuit12SetObjectFitEP7TObject
0000000000067b60 W _ZN7TMinuit13Class_VersionEv
0000000000034990 T _ZN7TMinuit13SetPrintLevelEi
0000000000035c70 T _ZN7TMinuit15DefineParameterEiPKcdddd
000000000004f150 W _ZN7TMinuit15SetGraphicsModeEb
000000000004f160 W _ZN7TMinuit16SetMaxIterationsEi
0000000000034780 T _ZN7TMinuit4EvalEiPdRdS0_i
00000000000622e0 T _ZN7TMinuit5ClassEv
000000000028b1e0 B _ZN7TMinuit5fgIsAE
000000000003f860 T _ZN7TMinuit5mneigEPdiiiS0_dRi
000000000004bce0 T _ZN7TMinuit5mnsetEv
0000000000034850 T _ZN7TMinuit6MigradEv
0000000000035e90 T _ZN7TMinuit6mnaminEv
0000000000036760 T _ZN7TMinuit6mnbinsEddiRdS0_RiS0_
0000000000034a30 T _ZN7TMinuit6mncalfEPdRd
0000000000036a20 T _ZN7TMinuit6mnclerEv
000000000003b930 T _ZN7TMinuit6mncntrEiiRi
000000000003c780 T _ZN7TMinuit6mncomdEPKcRi
000000000003cc10 T _ZN7TMinuit6mncontEiiiPdS0_Ri
000000000003df20 T _ZN7TMinuit6mncrckE7TStringiRS0_RiiPdS2_S2_i
000000000003e470 T _ZN7TMinuit6mncrosERdRi
0000000000049830 T _ZN7TMinuit6mncuveEv
0000000000042cc0 T _ZN7TMinuit6mnderiEv
0000000000042c40 T _ZN7TMinuit6mndxdiEdiRd
000000000004b890 T _ZN7TMinuit6mnematEPdi
0000000000040850 T _ZN7TMinuit6mnerrsEiRdS0_S0_S0_
0000000000034bd0 T _ZN7TMinuit6mnevalEdRdRi
000000000004a3a0 T _ZN7TMinuit6mnexcmEPKcPdiRi
0000000000034cf0 T _ZN7TMinuit6mnexinEPd
0000000000035f50 T _ZN7TMinuit6mnfixpEiRi
0000000000036270 T _ZN7TMinuit6mnfreeEi
00000000000449e0 T _ZN7TMinuit6mngradEv
0000000000043420 T _ZN7TMinuit6mnhelpE7TString
0000000000035d60 T _ZN7TMinuit6mnhelpEPKc
0000000000041970 T _ZN7TMinuit6mnhes1Ev
0000000000045910 T _ZN7TMinuit6mnhessEv
0000000000039680 T _ZN7TMinuit6mnimprEv
0000000000046760 T _ZN7TMinuit6mninexEPd
000000000004a010 T _ZN7TMinuit6mninitEiii
0000000000044dd0 T _ZN7TMinuit6mnlimsEv
000000000003a600 T _ZN7TMinuit6mnlineEPddS0_dd
000000000004d970 T _ZN7TMinuit6mnmatuEi
0000000000038110 T _ZN7TMinuit6mnmigrEv
0000000000036b30 T _ZN7TMinuit6mnmnosEv
0000000000040a00 T _ZN7TMinuit6mnmnotEiiRdS0_
0000000000041f80 T _ZN7TMinuit6mnparmEi7TStringddddRi
0000000000046c00 T _ZN7TMinuit6mnparsER7TStringRi
0000000000034da0 T _ZN7TMinuit6mnpfitEPdS0_iS0_Rd
00000000000473f0 T _ZN7TMinuit6mnpintERdiS0_
00000000000476b0 T _ZN7TMinuit6mnplotEPdS0_Pciii
0000000000048040 T _ZN7TMinuit6mnprinEid
000000000004d1e0 T _ZN7TMinuit6mnpsdfEv
0000000000037040 T _ZN7TMinuit6mnrazzEdPdS0_RiS1_
0000000000049800 T _ZN7TMinuit6mnrn15ERdRi
0000000000049800 t _ZN7TMinuit6mnrn15ERdRi.localalias.21
00000000000497a0 t _ZN7TMinuit6mnrn15ERdRi.part.0
000000000003a490 T _ZN7TMinuit6mnrsetEi
0000000000035f40 T _ZN7TMinuit6mnsaveEv
0000000000035f40 t _ZN7TMinuit6mnsaveEv.localalias.50
000000000003b350 T _ZN7TMinuit6mnscanEv
0000000000049140 T _ZN7TMinuit6mnseekEv
00000000000372a0 T _ZN7TMinuit6mnsimpEv
0000000000035020 T _ZN7TMinuit6mnstatERdS0_S0_RiS1_S1_
00000000000350b0 T _ZN7TMinuit6mntinyEdRd
00000000000350b0 t _ZN7TMinuit6mntinyEdRd.localalias.42
000000000004f000 T _ZN7TMinuit6mnunptER7TString
0000000000041550 T _ZN7TMinuit6mnvertEPdiiiRi
0000000000045410 T _ZN7TMinuit6mnwarnEPKcS1_S1_
0000000000046820 T _ZN7TMinuit6mnwerrEv
0000000000034980 T _ZN7TMinuit6SetFCNEPFvRiPdRdS1_iE
0000000000049f70 T _ZN7TMinuit6SetFCNEPv
0000000000034730 T _ZN7TMinuit7CommandEPKc
0000000000035aa0 T _ZN7TMinuit7ContourEiii
00000000000348b0 T _ZN7TMinuit7ReleaseEi
0000000000063780 T _ZN7TMinuit8StreamerER7TBuffer
000000000004e9f0 T _ZN7TMinuitC1Ei
000000000004ed60 T _ZN7TMinuitC1ERKS_
000000000004e280 T _ZN7TMinuitC1Ev
000000000004e9f0 T _ZN7TMinuitC2Ei
000000000004ed60 T _ZN7TMinuitC2ERKS_
000000000004e280 T _ZN7TMinuitC2Ev
000000000004e260 T _ZN7TMinuitD0Ev
000000000004dfa0 T _ZN7TMinuitD1Ev
000000000004dfa0 T _ZN7TMinuitD2Ev
                 U _ZN7TObject11HandleTimerEP6TTimer
                 U _ZN7TObject11SetUniqueIDEj
                 U _ZN7TObject12ExecuteEventEiii
                 U _ZN7TObject13SavePrimitiveERSoPKc
                 U _ZN7TObject13SetDrawOptionEPKc
                 U _ZN7TObject15RecursiveRemoveEPS_
                 U _ZN7TObject15UseCurrentStyleEv
                 U _ZN7TObject19DistancetoPrimitiveEii
                 U _ZN7TObject3PopEv
                 U _ZN7TObject4DrawEPKc
                 U _ZN7TObject4ReadEPKc
                 U _ZN7TObject5PaintEPKc
                 U _ZN7TObject5WriteEPKcii
                 U _ZN7TObject6BrowseEP8TBrowser
                 U _ZN7TObject6DeleteEPKc
                 U _ZN7TObject6NotifyEv
                 U _ZN7TObject7ExecuteEP7TMethodP9TObjArrayPi
                 U _ZN7TObject7ExecuteEPKcS1_Pi
                 U _ZN7TObject9AppendPadEPKc
                 U _ZN7TObjectC2Ev
                 U _ZN7TObjectD2Ev
                 U _ZN7TObjectdaEPv
                 U _ZN7TObjectdaEPvS0_
                 U _ZN7TObjectdlEPv
                 U _ZN7TObjectdlEPvS0_
                 U _ZN7TRandom7UniformEdd
                 U _ZN7TRandomC1Ej
                 U _ZN7TRandomD1Ev
                 U _ZN7TString10ReplaceAllEPKciS1_i
                 U _ZN7TString11ShowMembersER16TMemberInspector
                 U _ZN7TString4FormEPKcz
                 U _ZN7TString6FormatEPKcz
                 U _ZN7TString6ResizeEi
                 U _ZN7TString7ReplaceEiiPKci
                 U _ZN7TString7ToUpperEv
                 U _ZN7TStringaSEPKc
                 U _ZN7TStringaSERK10TSubString
                 U _ZN7TStringaSERKS_
                 U _ZN7TStringC1Ec
                 U _ZN7TStringC1EPKc
                 U _ZN7TStringC1ERK10TSubString
                 U _ZN7TStringC1ERKS_
                 U _ZN7TStringC1Ev
                 U _ZN7TStringD1Ev
0000000000063730 T _ZN8ROOTDict20GenerateInitInstanceEPK13TLinearFitter
0000000000063760 T _ZN8ROOTDict20GenerateInitInstanceEPK16TLinearMinimizer
0000000000063770 T _ZN8ROOTDict20GenerateInitInstanceEPK16TMinuitMinimizer
0000000000063750 T _ZN8ROOTDict20GenerateInitInstanceEPK7TFitter
0000000000063740 T _ZN8ROOTDict20GenerateInitInstanceEPK7TMinuit
0000000000052e90 t _ZN8ROOTDictL11new_TFitterEPv
0000000000052c90 t _ZN8ROOTDictL11new_TMinuitEPv
0000000000052860 t _ZN8ROOTDictL14delete_TFitterEPv
0000000000052830 t _ZN8ROOTDictL14delete_TMinuitEPv
0000000000052880 t _ZN8ROOTDictL16destruct_TFitterEPv
0000000000052850 t _ZN8ROOTDictL16destruct_TMinuitEPv
0000000000052f20 t _ZN8ROOTDictL16newArray_TFitterElPv
0000000000052d10 t _ZN8ROOTDictL16newArray_TMinuitElPv
0000000000052bc0 t _ZN8ROOTDictL17new_TLinearFitterEPv
00000000000529e0 t _ZN8ROOTDictL19deleteArray_TFitterEPv
0000000000052990 t _ZN8ROOTDictL19deleteArray_TMinuitEPv
00000000000528c0 t _ZN8ROOTDictL19merge_TLinearFitterEPvP11TCollectionP14TFileMergeInfo
0000000000052890 t _ZN8ROOTDictL20delete_TLinearFitterEPv
00000000000531b0 t _ZN8ROOTDictL20new_TLinearMinimizerEPv
0000000000053490 t _ZN8ROOTDictL20new_TMinuitMinimizerEPv
00000000000631c0 t _ZN8ROOTDictL20new_vectorlEdoublegREPv
00000000000528b0 t _ZN8ROOTDictL22destruct_TLinearFitterEPv
0000000000052a40 t _ZN8ROOTDictL22newArray_TLinearFitterElPv
0000000000065360 t _ZN8ROOTDictL22streamer_TLinearFitterER7TBufferPv
0000000000052910 t _ZN8ROOTDictL23delete_TLinearMinimizerEPv
00000000000528e0 t _ZN8ROOTDictL23delete_TMinuitMinimizerEPv
0000000000052c60 t _ZN8ROOTDictL23delete_vectorlEdoublegREPv
0000000000052940 t _ZN8ROOTDictL25deleteArray_TLinearFitterEPv
0000000000052930 t _ZN8ROOTDictL25destruct_TLinearMinimizerEPv
0000000000052900 t _ZN8ROOTDictL25destruct_TMinuitMinimizerEPv
0000000000052c40 t _ZN8ROOTDictL25destruct_vectorlEdoublegREPv
0000000000061cb0 t _ZN8ROOTDictL25GenerateInitInstanceLocalEPK13TLinearFitter.isra.23
00000000000627c0 t _ZN8ROOTDictL25GenerateInitInstanceLocalEPK16TLinearMinimizer.isra.28
0000000000062b60 t _ZN8ROOTDictL25GenerateInitInstanceLocalEPK16TMinuitMinimizer.isra.30
0000000000062420 t _ZN8ROOTDictL25GenerateInitInstanceLocalEPK7TFitter.isra.26
0000000000062080 t _ZN8ROOTDictL25GenerateInitInstanceLocalEPK7TMinuit.isra.24
0000000000062f00 t _ZN8ROOTDictL25GenerateInitInstanceLocalEPKSt6vectorIdSaIdEE.isra.33
0000000000053210 t _ZN8ROOTDictL25newArray_TLinearMinimizerElPv
0000000000053350 t _ZN8ROOTDictL25newArray_TMinuitMinimizerElPv
0000000000063210 t _ZN8ROOTDictL25newArray_vectorlEdoublegRElPv
00000000000631a0 t _ZN8ROOTDictL27vectorlEdoublegR_DictionaryEv
00000000000530b0 t _ZN8ROOTDictL28deleteArray_TLinearMinimizerEPv
0000000000053110 t _ZN8ROOTDictL28deleteArray_TMinuitMinimizerEPv
0000000000053160 t _ZN8ROOTDictL28deleteArray_vectorlEdoublegREPv
000000000002c890 W _ZN8TFormula8IsLinearEv
                 U _ZN8TFormulaaSERKS_
                 U _ZN8TFormulaC1EPKcS1_
                 U _ZN8TGraph2D5ClassEv
                 U _ZN8TMatrixTIdE11ShowMembersER16TMemberInspector
000000000002cb80 W _ZN8TMatrixTIdE14GetMatrixArrayEv
000000000002cbf0 W _ZN8TMatrixTIdE16GetColIndexArrayEv
000000000002cbd0 W _ZN8TMatrixTIdE16GetRowIndexArrayEv
000000000002ce90 W _ZN8TMatrixTIdE16SetColIndexArrayEPi
000000000002ceb0 W _ZN8TMatrixTIdE16SetRowIndexArrayEPi
                 U _ZN8TMatrixTIdE3UseEiiiiPd
                 U _ZN8TMatrixTIdE5ClassEv
000000000002d1c0 W _ZN8TMatrixTIdE5ClearEPKc
                 U _ZN8TMatrixTIdE6SetSubEiiRK12TMatrixTBaseIdE
                 U _ZN8TMatrixTIdE8Delete_mEiRPd
                 U _ZN8TMatrixTIdE8NaNValueEv
                 U _ZN8TMatrixTIdE8ResizeToEiii
                 U _ZN8TMatrixTIdE8ResizeToEiiiii
                 U _ZN8TMatrixTIdE8StreamerER7TBuffer
                 U _ZN8TMatrixTIdEaSERK11TMatrixTSymIdE
                 U _ZN8TMatrixTIdEaSERKS0_
                 U _ZN8TMatrixTIdEC1Eii
                 U _ZN8TMatrixTIdEC1ERKS0_
000000000002d010 W _ZN8TMatrixTIdEclEii
000000000002d470 W _ZN8TMatrixTIdED0Ev
000000000002d200 W _ZN8TMatrixTIdED1Ev
000000000002d200 W _ZN8TMatrixTIdED2Ev
                 U _ZN8TRandom2C1Ej
                 U _ZN8TRandom2D1Ev
                 U _ZN8TStorage11ObjectAllocEm
                 U _ZN8TStorage11ObjectAllocEmPv
                 U _ZN8TStorage16ObjectAllocArrayEm
                 U _ZN8TVectorTIdE11ShowMembersER16TMemberInspector
                 U _ZN8TVectorTIdE3UseEiiPd
                 U _ZN8TVectorTIdE4DrawEPKc
                 U _ZN8TVectorTIdE4ZeroEv
                 U _ZN8TVectorTIdE5ClassEv
000000000002d2a0 W _ZN8TVectorTIdE5ClearEPKc
                 U _ZN8TVectorTIdE8Delete_mEiRPd
                 U _ZN8TVectorTIdE8ResizeToEii
                 U _ZN8TVectorTIdE8StreamerER7TBuffer
                 U _ZN8TVectorTIdEaSEd
                 U _ZN8TVectorTIdEaSERKS0_
                 U _ZN8TVectorTIdEC1Ei
                 U _ZN8TVectorTIdEC1ERKS0_
000000000002d990 W _ZN8TVectorTIdEC1Ev
000000000002d990 W _ZN8TVectorTIdEC2Ev
000000000002d9e0 W _ZN8TVectorTIdEclEi
000000000002d600 W _ZN8TVectorTIdED0Ev
000000000002d2e0 W _ZN8TVectorTIdED1Ev
000000000002d2e0 W _ZN8TVectorTIdED2Ev
                 U _ZN8TVectorTIdEpLERKS0_
                 U _ZN9TIsAProxyC1ERKSt9type_infoPv
                 U _ZN9TObjArray11ShowMembersER16TMemberInspector
                 U _ZN9TObjArray5ClearEPKc
                 U _ZN9TObjArray6DeleteEPKc
                 U _ZN9TObjArray6ExpandEi
                 U _ZN9TObjArray7AddLastEP7TObject
                 U _ZN9TObjArrayaSERKS_
                 U _ZN9TObjArrayC1Eii
                 U _ZN9TObjArrayC1ERKS_
                 U _ZN9TObjArrayD1Ev
                 U _Znam@@GLIBCXX_3.4
                 U _ZNK11TCollection5CloneEPKc
000000000002d370 W _ZNK11TMatrixTRowIdE3IsAEv
                 U _ZNK11TMatrixTSymIdE11DeterminantERdS1_
                 U _ZNK11TMatrixTSymIdE11DeterminantEv
000000000002cc50 W _ZNK11TMatrixTSymIdE11IsSymmetricEv
000000000002cb90 W _ZNK11TMatrixTSymIdE14GetMatrixArrayEv
000000000002cc30 W _ZNK11TMatrixTSymIdE16GetColIndexArrayEv
000000000002cc10 W _ZNK11TMatrixTSymIdE16GetRowIndexArrayEv
000000000002ced0 W _ZNK11TMatrixTSymIdE3IsAEv
                 U _ZNK11TMatrixTSymIdE6GetSubEiiiiR12TMatrixTBaseIdEPKc
000000000002cd60 W _ZNK11TMatrixTSymIdEclEii
000000000004f180 W _ZNK12TInterpreter15Getp2f2funcnameEPv
                 U _ZNK12TMatrixTBaseIdE10ExtractRowEiiPdi
000000000002cfb0 W _ZNK12TMatrixTBaseIdE11DeterminantERdS1_
000000000002cfe0 W _ZNK12TMatrixTBaseIdE11DeterminantEv
                 U _ZNK12TMatrixTBaseIdE11IsSymmetricEv
                 U _ZNK12TMatrixTBaseIdE15GetMatrix2ArrayEPdPKc
000000000002d000 W _ZNK12TMatrixTBaseIdE3IsAEv
                 U _ZNK12TMatrixTBaseIdE3MaxEv
                 U _ZNK12TMatrixTBaseIdE3MinEv
                 U _ZNK12TMatrixTBaseIdE3SumEv
                 U _ZNK12TMatrixTBaseIdE5PrintEPKc
                 U _ZNK12TMatrixTBaseIdE6E2NormEv
                 U _ZNK12TMatrixTBaseIdE7ColNormEv
                 U _ZNK12TMatrixTBaseIdE7RowNormEv
                 U _ZNK12TMatrixTBaseIdE8NonZerosEv
000000000001dfc0 T _ZNK13TLinearFitter10GetParNameEi
000000000001ff30 T _ZNK13TLinearFitter11GetParErrorEi
000000000002d3c0 W _ZNK13TLinearFitter12GetParameterEi
000000000001dc60 T _ZNK13TLinearFitter12GetParameterEiPcRdS1_S1_S1_
000000000001e5e0 T _ZNK13TLinearFitter12PrintResultsEid
000000000001d830 T _ZNK13TLinearFitter19GetCovarianceMatrixEv
000000000002caa0 W _ZNK13TLinearFitter23GetNumberFreeParametersEv
000000000002ca90 W _ZNK13TLinearFitter24GetNumberTotalParametersEv
000000000002d500 W _ZNK13TLinearFitter26GetCovarianceMatrixElementEii
000000000002d390 W _ZNK13TLinearFitter3IsAEv
000000000002cac0 W _ZNK13TLinearFitter5GetY2Ev
000000000002cad0 W _ZNK13TLinearFitter7IsFixedEi
000000000002cb10 W _ZNK13TLinearFitter8GetStatsERdS0_S0_RiS1_
000000000002caf0 W _ZNK13TLinearFitter9ChisquareEiPd
000000000002cb00 W _ZNK13TLinearFitter9GetErrorsEiRdS0_S0_S0_
000000000002c930 W _ZNK14TVirtualFitter11GetUserFuncEv
000000000002c8b0 W _ZNK14TVirtualFitter12GetFitOptionEv
000000000002c920 W _ZNK14TVirtualFitter12GetObjectFitEv
000000000002c950 W _ZNK14TVirtualFitter8GetXlastEv
000000000002c970 W _ZNK14TVirtualFitter8GetYlastEv
000000000002c990 W _ZNK14TVirtualFitter8GetZlastEv
000000000002c940 W _ZNK14TVirtualFitter9GetXfirstEv
000000000002c960 W _ZNK14TVirtualFitter9GetYfirstEv
000000000002c980 W _ZNK14TVirtualFitter9GetZfirstEv
0000000000032f00 W _ZNK16TLinearMinimizer11MinGradientEv
0000000000032f40 W _ZNK16TLinearMinimizer13ProvidesErrorEv
0000000000032fa0 W _ZNK16TLinearMinimizer15CovMatrixStatusEv
0000000000032ef0 W _ZNK16TLinearMinimizer1XEv
0000000000032ee0 W _ZNK16TLinearMinimizer3EdmEv
00000000000331c0 W _ZNK16TLinearMinimizer3IsAEv
0000000000032f20 W _ZNK16TLinearMinimizer4NDimEv
0000000000032f30 W _ZNK16TLinearMinimizer5NFreeEv
0000000000032f50 W _ZNK16TLinearMinimizer6ErrorsEv
0000000000032f10 W _ZNK16TLinearMinimizer6NCallsEv
0000000000032ed0 W _ZNK16TLinearMinimizer8MinValueEv
0000000000032f70 W _ZNK16TLinearMinimizer9CovMatrixEjj
                 U _ZNK16TMemberInspector12GetParentLenEv
0000000000067ee0 W _ZNK16TMemberInspector3IsAEv
                 U _ZNK16TMemberInspector9GetParentEv
0000000000052750 W _ZNK16TMinuitMinimizer11MinGradientEv
000000000004fd70 T _ZNK16TMinuitMinimizer12GetCovMatrixEPd
00000000000504d0 T _ZNK16TMinuitMinimizer12VariableNameB5cxx11Ej
00000000000503a0 T _ZNK16TMinuitMinimizer13CheckVarIndexEj
0000000000052770 W _ZNK16TMinuitMinimizer13ProvidesErrorEv
000000000004f590 T _ZNK16TMinuitMinimizer13VariableIndexERKNSt7__cxx1112basic_stringIcSt11char_traitsIcESaIcEEE
000000000004f360 T _ZNK16TMinuitMinimizer15CovMatrixStatusEv
0000000000050480 T _ZNK16TMinuitMinimizer15IsFixedVariableEj
000000000004fee0 T _ZNK16TMinuitMinimizer16GetHessianMatrixEPd
00000000000502d0 T _ZNK16TMinuitMinimizer19CheckMinuitInstanceEv
0000000000051de0 T _ZNK16TMinuitMinimizer19GetVariableSettingsEjRN4ROOT3Fit17ParameterSettingsE
0000000000052740 W _ZNK16TMinuitMinimizer1XEv
000000000004f2e0 T _ZNK16TMinuitMinimizer3EdmEv
00000000000527d0 W _ZNK16TMinuitMinimizer3IsAEv
0000000000052760 W _ZNK16TMinuitMinimizer4NDimEv
000000000004f330 T _ZNK16TMinuitMinimizer5NFreeEv
0000000000052780 W _ZNK16TMinuitMinimizer6ErrorsEv
000000000004f290 T _ZNK16TMinuitMinimizer6NCallsEv
000000000004f3a0 T _ZNK16TMinuitMinimizer8GlobalCCEj
000000000004f2b0 T _ZNK16TMinuitMinimizer8MinValueEv
0000000000052790 W _ZNK16TMinuitMinimizer9CovMatrixEjj
000000000002d380 W _ZNK17TMatrixTRow_constIdE3IsAEv
0000000000031c70 W _ZNK3TF17GetXmaxEv
0000000000031c60 W _ZNK3TF17GetXminEv
0000000000031c90 W _ZNK3TF27GetYmaxEv
0000000000031c80 W _ZNK3TF27GetYminEv
000000000002cb70 W _ZNK3TH112GetDimensionEv
                 U _ZNK3TH18GetXaxisEv
                 U _ZNK3TH18GetYaxisEv
                 U _ZNK3TH18GetZaxisEv
0000000000033000 W _ZNK4ROOT3Fit7Chi2FCNINS_4Math25IGradientFunctionMultiDimEE13ModelFunctionEv
0000000000033030 W _ZNK4ROOT3Fit7Chi2FCNINS_4Math25IGradientFunctionMultiDimEE4DataEv
0000000000033190 W _ZNK4ROOT4Math19ParamFunctorHandlerINS0_12ParamFunctorE13BasisFunctionINS0_31IParametricGradFunctionMultiDimEEE5CloneEv
0000000000033010 W _ZNK4ROOT4Math22BasicFitMethodFunctionINS0_25IGradientFunctionMultiDimEE4NDimEv
00000000000526e0 W _ZNK4ROOT4Math25IGradientFunctionMultiDim8GradientEPKdPd
00000000000330b0 W _ZNK4ROOT4Math9Minimizer11CorrelationEjj
0000000000032df0 W _ZNK4ROOT4Math9Minimizer11MinGradientEv
0000000000032e10 W _ZNK4ROOT4Math9Minimizer11NIterationsEv
0000000000032e50 W _ZNK4ROOT4Math9Minimizer12GetCovMatrixEPd
0000000000032ea0 W _ZNK4ROOT4Math9Minimizer12VariableNameB5cxx11Ej
0000000000032e20 W _ZNK4ROOT4Math9Minimizer13ProvidesErrorEv
0000000000033b00 W _ZNK4ROOT4Math9Minimizer13VariableIndexERKNSt7__cxx1112basic_stringIcSt11char_traitsIcESaIcEEE
0000000000032e70 W _ZNK4ROOT4Math9Minimizer15CovMatrixStatusEv
00000000000336f0 W _ZNK4ROOT4Math9Minimizer15IsFixedVariableEj
0000000000032e60 W _ZNK4ROOT4Math9Minimizer16GetHessianMatrixEPd
00000000000337c0 W _ZNK4ROOT4Math9Minimizer19GetVariableSettingsEjRNS_3Fit17ParameterSettingsE
0000000000032de0 W _ZNK4ROOT4Math9Minimizer3EdmEv
00000000000331d0 W _ZNK4ROOT4Math9Minimizer5NFreeEv
0000000000032e30 W _ZNK4ROOT4Math9Minimizer6ErrorsEv
0000000000032e00 W _ZNK4ROOT4Math9Minimizer6NCallsEv
0000000000033090 W _ZNK4ROOT4Math9Minimizer7OptionsEv
0000000000032e80 W _ZNK4ROOT4Math9Minimizer8GlobalCCEj
0000000000032e40 W _ZNK4ROOT4Math9Minimizer9CovMatrixEjj
                 U _ZNK5TAxis7GetLastEv
                 U _ZNK5TAxis8GetFirstEv
                 U _ZNK5TUUID8AsStringEv
000000000002c850 W _ZNK6TNamed10IsSortableEv
                 U _ZNK6TNamed2lsEPKc
                 U _ZNK6TNamed4CopyER7TObject
000000000002d3a0 W _ZNK6TNamed4HashEv
                 U _ZNK6TNamed5CloneEPKc
                 U _ZNK6TNamed5PrintEPKc
                 U _ZNK6TNamed6SizeofEv
                 U _ZNK6TNamed7CompareEPK7TObject
000000000002c810 W _ZNK6TNamed7GetNameEv
000000000002c830 W _ZNK6TNamed8GetTitleEv
000000000002dd10 T _ZNK7TFitter10GetParNameEi
0000000000031880 T _ZNK7TFitter11GetParErrorEi
0000000000031930 T _ZNK7TFitter12GetParameterEi
00000000000319e0 T _ZNK7TFitter12GetParameterEiPcRdS1_S1_S1_
000000000002ddf0 T _ZNK7TFitter12PrintResultsEid
000000000002e400 T _ZNK7TFitter19GetCovarianceMatrixEv
000000000002dd00 T _ZNK7TFitter23GetNumberFreeParametersEv
000000000002dcf0 T _ZNK7TFitter24GetNumberTotalParametersEv
000000000002e470 T _ZNK7TFitter26GetCovarianceMatrixElementEii
0000000000031cb0 W _ZNK7TFitter3IsAEv
000000000002ddd0 T _ZNK7TFitter7IsFixedEi
000000000002dd70 T _ZNK7TFitter8GetStatsERdS0_S0_RiS1_
000000000002e350 T _ZNK7TFitter9ChisquareEiPd
000000000002dcd0 T _ZNK7TFitter9GetErrorsEiRdS0_S0_S0_
0000000000034840 T _ZNK7TMinuit10GetNumParsEv
00000000000350c0 T _ZNK7TMinuit12GetParameterEiRdS0_
0000000000034830 T _ZNK7TMinuit14GetNumFreeParsEv
0000000000034820 T _ZNK7TMinuit15GetNumFixedParsEv
000000000004f190 W _ZNK7TMinuit3IsAEv
0000000000035a80 T _ZNK7TMinuit5CloneEPKc
0000000000036ed0 T _ZNK7TMinuit6mnpoutEiR7TStringRdS2_S2_S2_Ri
000000000004f140 W _ZNK7TMinuit7GetPlotEv
                 U _ZNK7TObject10FindObjectEPKc
                 U _ZNK7TObject10FindObjectEPKS_
000000000002c800 W _ZNK7TObject10IsSortableEv
                 U _ZNK7TObject11GetIconNameEv
                 U _ZNK7TObject11GetUniqueIDEv
                 U _ZNK7TObject12InheritsFromEPK6TClass
                 U _ZNK7TObject12InheritsFromEPKc
                 U _ZNK7TObject13GetDrawOptionEv
                 U _ZNK7TObject13GetObjectInfoEii
                 U _ZNK7TObject14AbstractMethodEPKc
                 U _ZNK7TObject2lsEPKc
                 U _ZNK7TObject4CopyERS_
                 U _ZNK7TObject4DumpEv
                 U _ZNK7TObject4HashEv
                 U _ZNK7TObject4InfoEPKcS1_z
                 U _ZNK7TObject5CloneEPKc
                 U _ZNK7TObject5ErrorEPKcS1_z
                 U _ZNK7TObject5FatalEPKcS1_z
                 U _ZNK7TObject5WriteEPKcii
                 U _ZNK7TObject6SaveAsEPKcS1_
                 U _ZNK7TObject7CompareEPKS_
                 U _ZNK7TObject7DoErrorEiPKcS1_P13__va_list_tag
                 U _ZNK7TObject7GetNameEv
                 U _ZNK7TObject7InspectEv
                 U _ZNK7TObject7IsEqualEPKS_
                 U _ZNK7TObject7WarningEPKcS1_z
                 U _ZNK7TObject8GetTitleEv
                 U _ZNK7TObject8IsFolderEv
                 U _ZNK7TObject8SysErrorEPKcS1_z
                 U _ZNK7TObject9ClassNameEv
                 U _ZNK7TObject9DrawClassEv
                 U _ZNK7TObject9DrawCloneEPKc
000000000002c7f0 W _ZNK7TObject9GetOptionEv
                 U _ZNK7TString13AssertElementEi
                 U _ZNK7TString4HashENS_12ECaseCompareE
                 U _ZNK7TString5IndexEPKciiNS_12ECaseCompareE
                 U _ZNK7TString8TokenizeERKS_
                 U _ZNK7TStringclEii
                 U _ZNK8TFormula12GetParameterEi
0000000000031c50 W _ZNK8TFormula13GetParametersEv
000000000002c860 W _ZNK8TFormula7GetNdimEv
000000000002c870 W _ZNK8TFormula7GetNparEv
000000000002c880 W _ZNK8TFormula9GetNumberEv
0000000000031ca0 W _ZNK8TGraph2D5GetEZEv
                 U _ZNK8TMatrixTIdE11DeterminantERdS1_
                 U _ZNK8TMatrixTIdE11DeterminantEv
000000000002cbb0 W _ZNK8TMatrixTIdE14GetMatrixArrayEv
000000000002cbe0 W _ZNK8TMatrixTIdE16GetColIndexArrayEv
000000000002cbc0 W _ZNK8TMatrixTIdE16GetRowIndexArrayEv
000000000002d1b0 W _ZNK8TMatrixTIdE3IsAEv
                 U _ZNK8TMatrixTIdE6GetSubEiiiiR12TMatrixTBaseIdEPKc
000000000002d0e0 W _ZNK8TMatrixTIdEclEii
000000000002d290 W _ZNK8TVectorTIdE3IsAEv
                 U _ZNK8TVectorTIdE5PrintEPKc
                 U _ZNK8TVectorTIdE8NonZerosEv
                 U _ZNK9TObjArray10GetAbsLastEv
                 U _ZNK9TObjArray10GetEntriesEv
                 U _ZNKSt5ctypeIcE13_M_widen_initEv@@GLIBCXX_3.4.11
0000000000032db0 W _ZNKSt5ctypeIcE8do_widenEc
                 U _ZNKSt7__cxx1112basic_stringIcSt11char_traitsIcESaIcEE4findEPKcmm@@GLIBCXX_3.4.21
                 U _ZNKSt7__cxx1112basic_stringIcSt11char_traitsIcESaIcEE7compareEPKc@@GLIBCXX_3.4.21
                 U _ZNSo3putEc@@GLIBCXX_3.4
                 U _ZNSo5flushEv@@GLIBCXX_3.4
                 U _ZNSo9_M_insertIdEERSoT_@@GLIBCXX_3.4.9
0000000000068030 W _ZNSt6vectorIdSaIdEE13_M_insert_auxEN9__gnu_cxx17__normal_iteratorIPdS1_EERKd
0000000000034430 W _ZNSt6vectorIdSaIdEE14_M_fill_insertEN9__gnu_cxx17__normal_iteratorIPdS1_EEmRKd
0000000000031e00 t _ZNSt7__cxx1112basic_stringIcSt11char_traitsIcESaIcEE12_M_constructIPKcEEvT_S8_St20forward_iterator_tag.isra.43
                 U _ZNSt7__cxx1112basic_stringIcSt11char_traitsIcESaIcEE7reserveEm@@GLIBCXX_3.4.21
                 U _ZNSt7__cxx1112basic_stringIcSt11char_traitsIcESaIcEE9_M_appendEPKcm@@GLIBCXX_3.4.21
                 U _ZNSt7__cxx1112basic_stringIcSt11char_traitsIcESaIcEE9_M_assignERKS4_@@GLIBCXX_3.4.21
                 U _ZNSt7__cxx1112basic_stringIcSt11char_traitsIcESaIcEE9_M_createERmm@@GLIBCXX_3.4.21
                 U _ZNSt8ios_base4InitC1Ev@@GLIBCXX_3.4
                 U _ZNSt8ios_base4InitD1Ev@@GLIBCXX_3.4
                 U _Znwm@@GLIBCXX_3.4
                 U _ZplPKcRK7TString
                 U _ZplRK7TStringS1_
                 U _ZSt16__ostream_insertIcSt11char_traitsIcEERSt13basic_ostreamIT_T0_ES6_PKS3_l@@GLIBCXX_3.4.9
                 U _ZSt16__throw_bad_castv@@GLIBCXX_3.4
                 U _ZSt19__throw_logic_errorPKc@@GLIBCXX_3.4
                 U _ZSt20__throw_length_errorPKc@@GLIBCXX_3.4
                 U _ZSt4cerr@@GLIBCXX_3.4
                 U _ZSt4cout@@GLIBCXX_3.4
000000000028aea1 b _ZStL8__ioinit
000000000028aea3 b _ZStL8__ioinit
000000000028aea6 b _ZStL8__ioinit
000000000028b1b1 b _ZStL8__ioinit
000000000028b908 b _ZStL8__ioinit
0000000000287650 V _ZTI11TMatrixTSymIdE
0000000000287638 V _ZTI12TMatrixTBaseIdE
0000000000287680 V _ZTI13TLinearFitter
                 U _ZTI14TVirtualFitter
00000000002889e8 V _ZTI16TLinearMinimizer
00000000002892b0 V _ZTI16TMinuitMinimizer
0000000000289480 V _ZTI16TVirtualIsAProxy
0000000000289490 V _ZTI21TInstrumentedIsAProxyI13TLinearFitterE
00000000002894d8 V _ZTI21TInstrumentedIsAProxyI16TLinearMinimizerE
00000000002894f0 V _ZTI21TInstrumentedIsAProxyI16TMinuitMinimizerE
00000000002894c0 V _ZTI21TInstrumentedIsAProxyI7TFitterE
00000000002894a8 V _ZTI21TInstrumentedIsAProxyI7TMinuitE
                 U _ZTI6TGraph
                 U _ZTI6TNamed
00000000002885e8 V _ZTI7TFitter
0000000000288e30 V _ZTI7TMinuit
                 U _ZTI7TObject
0000000000287668 V _ZTI8TMatrixTIdE
0000000000287620 V _ZTI8TVectorTIdE
0000000000289470 V _ZTIN4ROOT20TCollectionProxyInfo11EnvironBaseE
0000000000289530 V _ZTIN4ROOT20TCollectionProxyInfo7EnvironIN9__gnu_cxx17__normal_iteratorIPdSt6vectorIdSaIdEEEEEE
0000000000288a98 V _ZTIN4ROOT3Fit7Chi2FCNINS_4Math25IGradientFunctionMultiDimEEE
0000000000288a00 V _ZTIN4ROOT4Math10IBaseParamE
0000000000288a70 V _ZTIN4ROOT4Math12ParamFunctorE
0000000000288990 V _ZTIN4ROOT4Math17IGradientMultiDimE
0000000000288a60 V _ZTIN4ROOT4Math17ParamFunctionBaseE
0000000000288ab0 V _ZTIN4ROOT4Math19ParamFunctorHandlerINS0_12ParamFunctorE13BasisFunctionINS0_31IParametricGradFunctionMultiDimEEEE
0000000000288980 V _ZTIN4ROOT4Math21IBaseFunctionMultiDimE
0000000000288a80 V _ZTIN4ROOT4Math22BasicFitMethodFunctionINS0_25IGradientFunctionMultiDimEEE
00000000002889a0 V _ZTIN4ROOT4Math25IGradientFunctionMultiDimE
0000000000288a10 V _ZTIN4ROOT4Math27IParametricFunctionMultiDimE
0000000000288a48 V _ZTIN4ROOT4Math31IParametricGradFunctionMultiDimE
00000000002889d8 V _ZTIN4ROOT4Math9MinimizerE
0000000000289460 V _ZTISt12_Vector_baseIdSaIdEE
0000000000289508 V _ZTISt6vectorIdSaIdEE
0000000000068ad0 V _ZTS11TMatrixTSymIdE
0000000000068ab0 V _ZTS12TMatrixTBaseIdE
0000000000068b00 V _ZTS13TLinearFitter
0000000000069450 V _ZTS16TLinearMinimizer
0000000000071730 V _ZTS16TMinuitMinimizer
0000000000076c50 V _ZTS16TVirtualIsAProxy
0000000000076c80 V _ZTS21TInstrumentedIsAProxyI13TLinearFitterE
0000000000076d40 V _ZTS21TInstrumentedIsAProxyI16TLinearMinimizerE
0000000000076d80 V _ZTS21TInstrumentedIsAProxyI16TMinuitMinimizerE
0000000000076d00 V _ZTS21TInstrumentedIsAProxyI7TFitterE
0000000000076cc0 V _ZTS21TInstrumentedIsAProxyI7TMinuitE
0000000000068c50 V _ZTS7TFitter
0000000000070e20 V _ZTS7TMinuit
0000000000068ae8 V _ZTS8TMatrixTIdE
0000000000068a98 V _ZTS8TVectorTIdE
0000000000076c20 V _ZTSN4ROOT20TCollectionProxyInfo11EnvironBaseE
0000000000076de0 V _ZTSN4ROOT20TCollectionProxyInfo7EnvironIN9__gnu_cxx17__normal_iteratorIPdSt6vectorIdSaIdEEEEEE
00000000000695c0 V _ZTSN4ROOT3Fit7Chi2FCNINS_4Math25IGradientFunctionMultiDimEEE
0000000000069470 V _ZTSN4ROOT4Math10IBaseParamE
0000000000069540 V _ZTSN4ROOT4Math12ParamFunctorE
00000000000693e0 V _ZTSN4ROOT4Math17IGradientMultiDimE
0000000000069520 V _ZTSN4ROOT4Math17ParamFunctionBaseE
0000000000069600 V _ZTSN4ROOT4Math19ParamFunctorHandlerINS0_12ParamFunctorE13BasisFunctionINS0_31IParametricGradFunctionMultiDimEEEE
00000000000693a0 V _ZTSN4ROOT4Math21IBaseFunctionMultiDimE
0000000000069560 V _ZTSN4ROOT4Math22BasicFitMethodFunctionINS0_25IGradientFunctionMultiDimEEE
0000000000069400 V _ZTSN4ROOT4Math25IGradientFunctionMultiDimE
00000000000694a0 V _ZTSN4ROOT4Math27IParametricFunctionMultiDimE
00000000000694e0 V _ZTSN4ROOT4Math31IParametricGradFunctionMultiDimE
0000000000069430 V _ZTSN4ROOT4Math9MinimizerE
0000000000076c00 V _ZTSSt12_Vector_baseIdSaIdEE
0000000000076db0 V _ZTSSt6vectorIdSaIdEE
0000000000033020 W _ZTv0_n40_NK4ROOT4Math22BasicFitMethodFunctionINS0_25IGradientFunctionMultiDimEE4NDimEv
                 U _ZTV11TDecompBase
                 U _ZTV11TDecompChol
0000000000287b88 V _ZTV11TMatrixTSymIdE
0000000000287878 V _ZTV12TMatrixTBaseIdE
00000000002881b0 V _ZTV13TLinearFitter
0000000000288c68 V _ZTV16TLinearMinimizer
00000000002892c8 V _ZTV16TMinuitMinimizer
0000000000289548 V _ZTV21TInstrumentedIsAProxyI13TLinearFitterE
00000000002895d8 V _ZTV21TInstrumentedIsAProxyI16TLinearMinimizerE
0000000000289608 V _ZTV21TInstrumentedIsAProxyI16TMinuitMinimizerE
00000000002895a8 V _ZTV21TInstrumentedIsAProxyI7TFitterE
0000000000289578 V _ZTV21TInstrumentedIsAProxyI7TMinuitE
                 U _ZTV6TNamed
0000000000288600 V _ZTV7TFitter
0000000000288e48 V _ZTV7TMinuit
0000000000287ea0 V _ZTV8TMatrixTIdE
0000000000287698 V _ZTV8TVectorTIdE
                 U _ZTVN10__cxxabiv117__class_type_infoE@@CXXABI_1.3
                 U _ZTVN10__cxxabiv120__si_class_type_infoE@@CXXABI_1.3
                 U _ZTVN10__cxxabiv121__vmi_class_type_infoE@@CXXABI_1.3
0000000000289638 V _ZTVN4ROOT20TCollectionProxyInfo7EnvironIN9__gnu_cxx17__normal_iteratorIPdSt6vectorIdSaIdEEEEEE
0000000000288c48 V _ZTVN4ROOT4Math12ParamFunctorE
0000000000288e00 V _ZTVN4ROOT4Math19ParamFunctorHandlerINS0_12ParamFunctorE13BasisFunctionINS0_31IParametricGradFunctionMultiDimEEEE
0000000000288ac8 V _ZTVN4ROOT4Math9MinimizerE
0000000000069340 r _ZZN16TLinearMinimizer11SetFunctionERKN4ROOT4Math25IGradientFunctionMultiDimEE19__PRETTY_FUNCTION__
00000000000716a0 r _ZZN16TMinuitMinimizer14RetrieveParamsEvE19__PRETTY_FUNCTION__
0000000000071660 r _ZZN16TMinuitMinimizer19RetrieveErrorMatrixEvE19__PRETTY_FUNCTION__
00000000000716e0 r _ZZN16TMinuitMinimizer7FcnGradERiPdRdS1_iE19__PRETTY_FUNCTION__
00000000002873e0 d _ZZN7TMinuit5mnsetEvE5cname
000000000028afc0 b _ZZN7TMinuit5mnsetEvE6cdbopt
000000000028b0e0 b _ZZN7TMinuit5mnsetEvE6cprlev
000000000028b080 b _ZZN7TMinuit5mnsetEvE6cstrat
000000000028af90 b _ZZN7TMinuit6mncntrEiiRiE6clabel
00000000002874e0 d _ZZN7TMinuit6mnexcmEPKcPdiRiE5cname
000000000028af70 b _ZZN7TMinuit6mngradEvE3cwd
000000000028af68 b _ZZN7TMinuit6mnimprEvE4rnum
000000000028af50 b _ZZN7TMinuit6mnplotEPdS0_PciiiE4cdot
000000000028af30 b _ZZN7TMinuit6mnplotEPdS0_PciiiE6cslash
000000000028af10 b _ZZN7TMinuit6mnprinEidE6cblank
000000000028aef0 b _ZZN7TMinuit6mnprinEidE6cnambf
000000000028aae0 d _ZZN7TMinuit6mnrn15ERdRiE5iseed
000000000028aed0 b _ZZN7TMinuit6mnunptER7TStringE3cpt
000000000028b7a0 b _ZZN8ROOTDictL25GenerateInitInstanceLocalEPK13TLinearFitterE8instance
000000000028b8a0 b _ZZN8ROOTDictL25GenerateInitInstanceLocalEPK13TLinearFitterE9isa_proxy
000000000028b440 b _ZZN8ROOTDictL25GenerateInitInstanceLocalEPK16TLinearMinimizerE8instance
000000000028b540 b _ZZN8ROOTDictL25GenerateInitInstanceLocalEPK16TLinearMinimizerE9isa_proxy
000000000028b320 b _ZZN8ROOTDictL25GenerateInitInstanceLocalEPK16TMinuitMinimizerE8instance
000000000028b420 b _ZZN8ROOTDictL25GenerateInitInstanceLocalEPK16TMinuitMinimizerE9isa_proxy
000000000028b560 b _ZZN8ROOTDictL25GenerateInitInstanceLocalEPK7TFitterE8instance
000000000028b660 b _ZZN8ROOTDictL25GenerateInitInstanceLocalEPK7TFitterE9isa_proxy
000000000028b680 b _ZZN8ROOTDictL25GenerateInitInstanceLocalEPK7TMinuitE8instance
000000000028b780 b _ZZN8ROOTDictL25GenerateInitInstanceLocalEPK7TMinuitE9isa_proxy
000000000028b200 b _ZZN8ROOTDictL25GenerateInitInstanceLocalEPKSt6vectorIdSaIdEEE8instance
000000000028b300 b _ZZN8ROOTDictL25GenerateInitInstanceLocalEPKSt6vectorIdSaIdEEE9isa_proxy
00000000000692e0 r _ZZNK4ROOT3Fit11DataWrapper6CoordsEjE19__PRETTY_FUNCTION__
0000000000069280 r _ZZNK4ROOT3Fit7BinData12GetErrorTypeEvE19__PRETTY_FUNCTION__
